
src/kernel/kernel:     file format elf64-littleriscv


Disassembly of section .text:

0000000080000000 <_entry>:
    80000000:	f14022f3          	csrr	t0,mhartid
    80000004:	02aa                	slli	t0,t0,0xa
    80000006:	00002117          	auipc	sp,0x2
    8000000a:	01a10113          	addi	sp,sp,26 # 80002020 <stacks+0x2000>
    8000000e:	9116                	add	sp,sp,t0
    80000010:	f1402573          	csrr	a0,mhartid
    80000014:	e119                	bnez	a0,8000001a <park>
    80000016:	3360806f          	j	8000834c <start>

000000008000001a <park>:
    8000001a:	10500073          	wfi
    8000001e:	bff5                	j	8000001a <park>

0000000080000020 <stacks>:
	...

0000000080008020 <r_sie>:
    80008020:	fe010113          	addi	sp,sp,-32
    80008024:	00813c23          	sd	s0,24(sp)
    80008028:	02010413          	addi	s0,sp,32
    8000802c:	104027f3          	csrr	a5,sie
    80008030:	fef43423          	sd	a5,-24(s0)
    80008034:	fe843783          	ld	a5,-24(s0)
    80008038:	00078513          	mv	a0,a5
    8000803c:	01813403          	ld	s0,24(sp)
    80008040:	02010113          	addi	sp,sp,32
    80008044:	00008067          	ret

0000000080008048 <w_sie>:
    80008048:	fe010113          	addi	sp,sp,-32
    8000804c:	00813c23          	sd	s0,24(sp)
    80008050:	02010413          	addi	s0,sp,32
    80008054:	fea43423          	sd	a0,-24(s0)
    80008058:	fe843783          	ld	a5,-24(s0)
    8000805c:	10479073          	csrw	sie,a5
    80008060:	00000013          	nop
    80008064:	01813403          	ld	s0,24(sp)
    80008068:	02010113          	addi	sp,sp,32
    8000806c:	00008067          	ret

0000000080008070 <w_mscratch>:
    80008070:	fe010113          	addi	sp,sp,-32
    80008074:	00813c23          	sd	s0,24(sp)
    80008078:	02010413          	addi	s0,sp,32
    8000807c:	fea43423          	sd	a0,-24(s0)
    80008080:	fe843783          	ld	a5,-24(s0)
    80008084:	34079073          	csrw	mscratch,a5
    80008088:	00000013          	nop
    8000808c:	01813403          	ld	s0,24(sp)
    80008090:	02010113          	addi	sp,sp,32
    80008094:	00008067          	ret

0000000080008098 <w_medeleg>:
    80008098:	fe010113          	addi	sp,sp,-32
    8000809c:	00813c23          	sd	s0,24(sp)
    800080a0:	02010413          	addi	s0,sp,32
    800080a4:	fea43423          	sd	a0,-24(s0)
    800080a8:	fe843783          	ld	a5,-24(s0)
    800080ac:	30279073          	csrw	medeleg,a5
    800080b0:	00000013          	nop
    800080b4:	01813403          	ld	s0,24(sp)
    800080b8:	02010113          	addi	sp,sp,32
    800080bc:	00008067          	ret

00000000800080c0 <w_mideleg>:
    800080c0:	fe010113          	addi	sp,sp,-32
    800080c4:	00813c23          	sd	s0,24(sp)
    800080c8:	02010413          	addi	s0,sp,32
    800080cc:	fea43423          	sd	a0,-24(s0)
    800080d0:	fe843783          	ld	a5,-24(s0)
    800080d4:	30379073          	csrw	mideleg,a5
    800080d8:	00000013          	nop
    800080dc:	01813403          	ld	s0,24(sp)
    800080e0:	02010113          	addi	sp,sp,32
    800080e4:	00008067          	ret

00000000800080e8 <w_satp>:
    800080e8:	fe010113          	addi	sp,sp,-32
    800080ec:	00813c23          	sd	s0,24(sp)
    800080f0:	02010413          	addi	s0,sp,32
    800080f4:	fea43423          	sd	a0,-24(s0)
    800080f8:	fe843783          	ld	a5,-24(s0)
    800080fc:	18079073          	csrw	satp,a5
    80008100:	00000013          	nop
    80008104:	01813403          	ld	s0,24(sp)
    80008108:	02010113          	addi	sp,sp,32
    8000810c:	00008067          	ret

0000000080008110 <w_pmpaddr0>:
    80008110:	fe010113          	addi	sp,sp,-32
    80008114:	00813c23          	sd	s0,24(sp)
    80008118:	02010413          	addi	s0,sp,32
    8000811c:	fea43423          	sd	a0,-24(s0)
    80008120:	fe843783          	ld	a5,-24(s0)
    80008124:	3b079073          	csrw	pmpaddr0,a5
    80008128:	00000013          	nop
    8000812c:	01813403          	ld	s0,24(sp)
    80008130:	02010113          	addi	sp,sp,32
    80008134:	00008067          	ret

0000000080008138 <w_pmpcfg0>:
    80008138:	fe010113          	addi	sp,sp,-32
    8000813c:	00813c23          	sd	s0,24(sp)
    80008140:	02010413          	addi	s0,sp,32
    80008144:	fea43423          	sd	a0,-24(s0)
    80008148:	fe843783          	ld	a5,-24(s0)
    8000814c:	3a079073          	csrw	pmpcfg0,a5
    80008150:	00000013          	nop
    80008154:	01813403          	ld	s0,24(sp)
    80008158:	02010113          	addi	sp,sp,32
    8000815c:	00008067          	ret

0000000080008160 <w_tp>:
    80008160:	fe010113          	addi	sp,sp,-32
    80008164:	00813c23          	sd	s0,24(sp)
    80008168:	02010413          	addi	s0,sp,32
    8000816c:	fea43423          	sd	a0,-24(s0)
    80008170:	fe843783          	ld	a5,-24(s0)
    80008174:	00078213          	mv	tp,a5
    80008178:	00000013          	nop
    8000817c:	01813403          	ld	s0,24(sp)
    80008180:	02010113          	addi	sp,sp,32
    80008184:	00008067          	ret

0000000080008188 <w_mepc>:
    80008188:	fe010113          	addi	sp,sp,-32
    8000818c:	00813c23          	sd	s0,24(sp)
    80008190:	02010413          	addi	s0,sp,32
    80008194:	fea43423          	sd	a0,-24(s0)
    80008198:	fe843783          	ld	a5,-24(s0)
    8000819c:	34179073          	csrw	mepc,a5
    800081a0:	00000013          	nop
    800081a4:	01813403          	ld	s0,24(sp)
    800081a8:	02010113          	addi	sp,sp,32
    800081ac:	00008067          	ret

00000000800081b0 <w_mtvec>:
    800081b0:	fe010113          	addi	sp,sp,-32
    800081b4:	00813c23          	sd	s0,24(sp)
    800081b8:	02010413          	addi	s0,sp,32
    800081bc:	fea43423          	sd	a0,-24(s0)
    800081c0:	fe843783          	ld	a5,-24(s0)
    800081c4:	30579073          	csrw	mtvec,a5
    800081c8:	00000013          	nop
    800081cc:	01813403          	ld	s0,24(sp)
    800081d0:	02010113          	addi	sp,sp,32
    800081d4:	00008067          	ret

00000000800081d8 <w_mstatus>:
    800081d8:	fe010113          	addi	sp,sp,-32
    800081dc:	00813c23          	sd	s0,24(sp)
    800081e0:	02010413          	addi	s0,sp,32
    800081e4:	fea43423          	sd	a0,-24(s0)
    800081e8:	fe843783          	ld	a5,-24(s0)
    800081ec:	30079073          	csrw	mstatus,a5
    800081f0:	00000013          	nop
    800081f4:	01813403          	ld	s0,24(sp)
    800081f8:	02010113          	addi	sp,sp,32
    800081fc:	00008067          	ret

0000000080008200 <r_mhartid>:
    80008200:	fe010113          	addi	sp,sp,-32
    80008204:	00813c23          	sd	s0,24(sp)
    80008208:	02010413          	addi	s0,sp,32
    8000820c:	f14027f3          	csrr	a5,mhartid
    80008210:	fef43423          	sd	a5,-24(s0)
    80008214:	fe843783          	ld	a5,-24(s0)
    80008218:	00078513          	mv	a0,a5
    8000821c:	01813403          	ld	s0,24(sp)
    80008220:	02010113          	addi	sp,sp,32
    80008224:	00008067          	ret

0000000080008228 <r_mstatus>:
    80008228:	fe010113          	addi	sp,sp,-32
    8000822c:	00813c23          	sd	s0,24(sp)
    80008230:	02010413          	addi	s0,sp,32
    80008234:	300027f3          	csrr	a5,mstatus
    80008238:	fef43423          	sd	a5,-24(s0)
    8000823c:	fe843783          	ld	a5,-24(s0)
    80008240:	00078513          	mv	a0,a5
    80008244:	01813403          	ld	s0,24(sp)
    80008248:	02010113          	addi	sp,sp,32
    8000824c:	00008067          	ret

0000000080008250 <w_mie>:
    80008250:	fe010113          	addi	sp,sp,-32
    80008254:	00813c23          	sd	s0,24(sp)
    80008258:	02010413          	addi	s0,sp,32
    8000825c:	fea43423          	sd	a0,-24(s0)
    80008260:	fe843783          	ld	a5,-24(s0)
    80008264:	30479073          	csrw	mie,a5
    80008268:	00000013          	nop
    8000826c:	00078513          	mv	a0,a5
    80008270:	01813403          	ld	s0,24(sp)
    80008274:	02010113          	addi	sp,sp,32
    80008278:	00008067          	ret

000000008000827c <r_mie>:
    8000827c:	fe010113          	addi	sp,sp,-32
    80008280:	00813c23          	sd	s0,24(sp)
    80008284:	02010413          	addi	s0,sp,32
    80008288:	304027f3          	csrr	a5,mie
    8000828c:	fef43423          	sd	a5,-24(s0)
    80008290:	fe843783          	ld	a5,-24(s0)
    80008294:	00078513          	mv	a0,a5
    80008298:	01813403          	ld	s0,24(sp)
    8000829c:	02010113          	addi	sp,sp,32
    800082a0:	00008067          	ret

00000000800082a4 <timer_handler>:
    800082a4:	fe010113          	addi	sp,sp,-32
    800082a8:	00113c23          	sd	ra,24(sp)
    800082ac:	00813823          	sd	s0,16(sp)
    800082b0:	02010413          	addi	s0,sp,32
    800082b4:	00004797          	auipc	a5,0x4
    800082b8:	e9c78793          	addi	a5,a5,-356 # 8000c150 <timer_processed_count>
    800082bc:	0007a783          	lw	a5,0(a5)
    800082c0:	0017879b          	addiw	a5,a5,1
    800082c4:	0007871b          	sext.w	a4,a5
    800082c8:	00004797          	auipc	a5,0x4
    800082cc:	e8878793          	addi	a5,a5,-376 # 8000c150 <timer_processed_count>
    800082d0:	00e7a023          	sw	a4,0(a5)
    800082d4:	00001097          	auipc	ra,0x1
    800082d8:	a20080e7          	jalr	-1504(ra) # 80008cf4 <get_tasks>
    800082dc:	00050793          	mv	a5,a0
    800082e0:	fef42623          	sw	a5,-20(s0)
    800082e4:	fec42783          	lw	a5,-20(s0)
    800082e8:	0007879b          	sext.w	a5,a5
    800082ec:	04078663          	beqz	a5,80008338 <timer_handler+0x94>
    800082f0:	00004797          	auipc	a5,0x4
    800082f4:	e6078793          	addi	a5,a5,-416 # 8000c150 <timer_processed_count>
    800082f8:	0007a783          	lw	a5,0(a5)
    800082fc:	00078713          	mv	a4,a5
    80008300:	fec42783          	lw	a5,-20(s0)
    80008304:	02f767bb          	remw	a5,a4,a5
    80008308:	fef42423          	sw	a5,-24(s0)
    8000830c:	fe842783          	lw	a5,-24(s0)
    80008310:	00078593          	mv	a1,a5
    80008314:	00002517          	auipc	a0,0x2
    80008318:	2fc50513          	addi	a0,a0,764 # 8000a610 <memset+0x80>
    8000831c:	00000097          	auipc	ra,0x0
    80008320:	678080e7          	jalr	1656(ra) # 80008994 <printf>
    80008324:	fe842783          	lw	a5,-24(s0)
    80008328:	00078513          	mv	a0,a5
    8000832c:	00001097          	auipc	ra,0x1
    80008330:	91c080e7          	jalr	-1764(ra) # 80008c48 <run_target_task_num>
    80008334:	0080006f          	j	8000833c <timer_handler+0x98>
    80008338:	00000013          	nop
    8000833c:	01813083          	ld	ra,24(sp)
    80008340:	01013403          	ld	s0,16(sp)
    80008344:	02010113          	addi	sp,sp,32
    80008348:	00008067          	ret

000000008000834c <start>:
    8000834c:	fe010113          	addi	sp,sp,-32
    80008350:	00113c23          	sd	ra,24(sp)
    80008354:	00813823          	sd	s0,16(sp)
    80008358:	02010413          	addi	s0,sp,32
    8000835c:	00000097          	auipc	ra,0x0
    80008360:	ecc080e7          	jalr	-308(ra) # 80008228 <r_mstatus>
    80008364:	fea43423          	sd	a0,-24(s0)
    80008368:	fe843703          	ld	a4,-24(s0)
    8000836c:	ffffe7b7          	lui	a5,0xffffe
    80008370:	7ff78793          	addi	a5,a5,2047 # ffffffffffffe7ff <disk+0xffffffff7f7d47ff>
    80008374:	00f777b3          	and	a5,a4,a5
    80008378:	fef43423          	sd	a5,-24(s0)
    8000837c:	fe843703          	ld	a4,-24(s0)
    80008380:	000017b7          	lui	a5,0x1
    80008384:	80078793          	addi	a5,a5,-2048 # 800 <STACK_SIZE-0x1800>
    80008388:	00f767b3          	or	a5,a4,a5
    8000838c:	fef43423          	sd	a5,-24(s0)
    80008390:	fe843503          	ld	a0,-24(s0)
    80008394:	00000097          	auipc	ra,0x0
    80008398:	e44080e7          	jalr	-444(ra) # 800081d8 <w_mstatus>
    8000839c:	00000797          	auipc	a5,0x0
    800083a0:	32078793          	addi	a5,a5,800 # 800086bc <main>
    800083a4:	00078513          	mv	a0,a5
    800083a8:	00000097          	auipc	ra,0x0
    800083ac:	de0080e7          	jalr	-544(ra) # 80008188 <w_mepc>
    800083b0:	00000513          	li	a0,0
    800083b4:	00000097          	auipc	ra,0x0
    800083b8:	d34080e7          	jalr	-716(ra) # 800080e8 <w_satp>
    800083bc:	000107b7          	lui	a5,0x10
    800083c0:	fff78513          	addi	a0,a5,-1 # ffff <STACK_SIZE+0xdfff>
    800083c4:	00000097          	auipc	ra,0x0
    800083c8:	cd4080e7          	jalr	-812(ra) # 80008098 <w_medeleg>
    800083cc:	000107b7          	lui	a5,0x10
    800083d0:	fff78513          	addi	a0,a5,-1 # ffff <STACK_SIZE+0xdfff>
    800083d4:	00000097          	auipc	ra,0x0
    800083d8:	cec080e7          	jalr	-788(ra) # 800080c0 <w_mideleg>
    800083dc:	00000097          	auipc	ra,0x0
    800083e0:	c44080e7          	jalr	-956(ra) # 80008020 <r_sie>
    800083e4:	00050793          	mv	a5,a0
    800083e8:	2227e793          	ori	a5,a5,546
    800083ec:	00078513          	mv	a0,a5
    800083f0:	00000097          	auipc	ra,0x0
    800083f4:	c58080e7          	jalr	-936(ra) # 80008048 <w_sie>
    800083f8:	fff00793          	li	a5,-1
    800083fc:	00a7d513          	srli	a0,a5,0xa
    80008400:	00000097          	auipc	ra,0x0
    80008404:	d10080e7          	jalr	-752(ra) # 80008110 <w_pmpaddr0>
    80008408:	00f00513          	li	a0,15
    8000840c:	00000097          	auipc	ra,0x0
    80008410:	d2c080e7          	jalr	-724(ra) # 80008138 <w_pmpcfg0>
    80008414:	00000097          	auipc	ra,0x0
    80008418:	038080e7          	jalr	56(ra) # 8000844c <timer_init>
    8000841c:	00000097          	auipc	ra,0x0
    80008420:	de4080e7          	jalr	-540(ra) # 80008200 <r_mhartid>
    80008424:	00050793          	mv	a5,a0
    80008428:	00078513          	mv	a0,a5
    8000842c:	00000097          	auipc	ra,0x0
    80008430:	d34080e7          	jalr	-716(ra) # 80008160 <w_tp>
    80008434:	30200073          	mret
    80008438:	00000013          	nop
    8000843c:	01813083          	ld	ra,24(sp)
    80008440:	01013403          	ld	s0,16(sp)
    80008444:	02010113          	addi	sp,sp,32
    80008448:	00008067          	ret

000000008000844c <timer_init>:
    8000844c:	fe010113          	addi	sp,sp,-32
    80008450:	00113c23          	sd	ra,24(sp)
    80008454:	00813823          	sd	s0,16(sp)
    80008458:	02010413          	addi	s0,sp,32
    8000845c:	00000097          	auipc	ra,0x0
    80008460:	da4080e7          	jalr	-604(ra) # 80008200 <r_mhartid>
    80008464:	fea43423          	sd	a0,-24(s0)
    80008468:	0200c7b7          	lui	a5,0x200c
    8000846c:	ff878793          	addi	a5,a5,-8 # 200bff8 <STACK_SIZE+0x2009ff8>
    80008470:	0007b703          	ld	a4,0(a5)
    80008474:	fe843683          	ld	a3,-24(s0)
    80008478:	004017b7          	lui	a5,0x401
    8000847c:	80078793          	addi	a5,a5,-2048 # 400800 <STACK_SIZE+0x3fe800>
    80008480:	00f687b3          	add	a5,a3,a5
    80008484:	00379793          	slli	a5,a5,0x3
    80008488:	00078693          	mv	a3,a5
    8000848c:	009897b7          	lui	a5,0x989
    80008490:	68078793          	addi	a5,a5,1664 # 989680 <STACK_SIZE+0x987680>
    80008494:	00f707b3          	add	a5,a4,a5
    80008498:	00f6b023          	sd	a5,0(a3)
    8000849c:	fe843703          	ld	a4,-24(s0)
    800084a0:	00070793          	mv	a5,a4
    800084a4:	00279793          	slli	a5,a5,0x2
    800084a8:	00e787b3          	add	a5,a5,a4
    800084ac:	00379793          	slli	a5,a5,0x3
    800084b0:	00004717          	auipc	a4,0x4
    800084b4:	b6070713          	addi	a4,a4,-1184 # 8000c010 <timer_scratch>
    800084b8:	00e787b3          	add	a5,a5,a4
    800084bc:	fef43023          	sd	a5,-32(s0)
    800084c0:	fe843703          	ld	a4,-24(s0)
    800084c4:	004017b7          	lui	a5,0x401
    800084c8:	80078793          	addi	a5,a5,-2048 # 400800 <STACK_SIZE+0x3fe800>
    800084cc:	00f70733          	add	a4,a4,a5
    800084d0:	fe043783          	ld	a5,-32(s0)
    800084d4:	01878793          	addi	a5,a5,24
    800084d8:	00371713          	slli	a4,a4,0x3
    800084dc:	00e7b023          	sd	a4,0(a5)
    800084e0:	fe043783          	ld	a5,-32(s0)
    800084e4:	02078793          	addi	a5,a5,32
    800084e8:	00989737          	lui	a4,0x989
    800084ec:	68070713          	addi	a4,a4,1664 # 989680 <STACK_SIZE+0x987680>
    800084f0:	00e7b023          	sd	a4,0(a5)
    800084f4:	fe043783          	ld	a5,-32(s0)
    800084f8:	00078513          	mv	a0,a5
    800084fc:	00000097          	auipc	ra,0x0
    80008500:	b74080e7          	jalr	-1164(ra) # 80008070 <w_mscratch>
    80008504:	00000797          	auipc	a5,0x0
    80008508:	0fc78793          	addi	a5,a5,252 # 80008600 <timervec>
    8000850c:	00078513          	mv	a0,a5
    80008510:	00000097          	auipc	ra,0x0
    80008514:	ca0080e7          	jalr	-864(ra) # 800081b0 <w_mtvec>
    80008518:	00000097          	auipc	ra,0x0
    8000851c:	d10080e7          	jalr	-752(ra) # 80008228 <r_mstatus>
    80008520:	00050793          	mv	a5,a0
    80008524:	0087e793          	ori	a5,a5,8
    80008528:	00078513          	mv	a0,a5
    8000852c:	00000097          	auipc	ra,0x0
    80008530:	cac080e7          	jalr	-852(ra) # 800081d8 <w_mstatus>
    80008534:	00000097          	auipc	ra,0x0
    80008538:	d48080e7          	jalr	-696(ra) # 8000827c <r_mie>
    8000853c:	00050793          	mv	a5,a0
    80008540:	0807e793          	ori	a5,a5,128
    80008544:	00078513          	mv	a0,a5
    80008548:	00000097          	auipc	ra,0x0
    8000854c:	d08080e7          	jalr	-760(ra) # 80008250 <w_mie>
    80008550:	00000013          	nop
    80008554:	01813083          	ld	ra,24(sp)
    80008558:	01013403          	ld	s0,16(sp)
    8000855c:	02010113          	addi	sp,sp,32
    80008560:	00008067          	ret
	...

0000000080008570 <kernelvec>:
    80008570:	7111                	addi	sp,sp,-256
    80008572:	e006                	sd	ra,0(sp)
    80008574:	e40a                	sd	sp,8(sp)
    80008576:	e80e                	sd	gp,16(sp)
    80008578:	ec12                	sd	tp,24(sp)
    8000857a:	f016                	sd	t0,32(sp)
    8000857c:	f41a                	sd	t1,40(sp)
    8000857e:	f81e                	sd	t2,48(sp)
    80008580:	fc22                	sd	s0,56(sp)
    80008582:	e0a6                	sd	s1,64(sp)
    80008584:	e4aa                	sd	a0,72(sp)
    80008586:	e8ae                	sd	a1,80(sp)
    80008588:	ecb2                	sd	a2,88(sp)
    8000858a:	f0b6                	sd	a3,96(sp)
    8000858c:	f4ba                	sd	a4,104(sp)
    8000858e:	f8be                	sd	a5,112(sp)
    80008590:	fcc2                	sd	a6,120(sp)
    80008592:	e146                	sd	a7,128(sp)
    80008594:	e54a                	sd	s2,136(sp)
    80008596:	e94e                	sd	s3,144(sp)
    80008598:	ed52                	sd	s4,152(sp)
    8000859a:	f156                	sd	s5,160(sp)
    8000859c:	f55a                	sd	s6,168(sp)
    8000859e:	f95e                	sd	s7,176(sp)
    800085a0:	fd62                	sd	s8,184(sp)
    800085a2:	e1e6                	sd	s9,192(sp)
    800085a4:	e5ea                	sd	s10,200(sp)
    800085a6:	e9ee                	sd	s11,208(sp)
    800085a8:	edf2                	sd	t3,216(sp)
    800085aa:	f1f6                	sd	t4,224(sp)
    800085ac:	f5fa                	sd	t5,232(sp)
    800085ae:	f9fe                	sd	t6,240(sp)
    800085b0:	5bd000ef          	jal	ra,8000936c <kerneltrap>
    800085b4:	6082                	ld	ra,0(sp)
    800085b6:	6122                	ld	sp,8(sp)
    800085b8:	61c2                	ld	gp,16(sp)
    800085ba:	7282                	ld	t0,32(sp)
    800085bc:	7322                	ld	t1,40(sp)
    800085be:	73c2                	ld	t2,48(sp)
    800085c0:	7462                	ld	s0,56(sp)
    800085c2:	6486                	ld	s1,64(sp)
    800085c4:	6526                	ld	a0,72(sp)
    800085c6:	65c6                	ld	a1,80(sp)
    800085c8:	6666                	ld	a2,88(sp)
    800085ca:	7686                	ld	a3,96(sp)
    800085cc:	7726                	ld	a4,104(sp)
    800085ce:	77c6                	ld	a5,112(sp)
    800085d0:	7866                	ld	a6,120(sp)
    800085d2:	688a                	ld	a7,128(sp)
    800085d4:	692a                	ld	s2,136(sp)
    800085d6:	69ca                	ld	s3,144(sp)
    800085d8:	6a6a                	ld	s4,152(sp)
    800085da:	7a8a                	ld	s5,160(sp)
    800085dc:	7b2a                	ld	s6,168(sp)
    800085de:	7bca                	ld	s7,176(sp)
    800085e0:	7c6a                	ld	s8,184(sp)
    800085e2:	6c8e                	ld	s9,192(sp)
    800085e4:	6d2e                	ld	s10,200(sp)
    800085e6:	6dce                	ld	s11,208(sp)
    800085e8:	6e6e                	ld	t3,216(sp)
    800085ea:	7e8e                	ld	t4,224(sp)
    800085ec:	7f2e                	ld	t5,232(sp)
    800085ee:	7fce                	ld	t6,240(sp)
    800085f0:	6111                	addi	sp,sp,256
    800085f2:	10200073          	sret
    800085f6:	00000013          	nop
    800085fa:	00000013          	nop
    800085fe:	0001                	nop

0000000080008600 <timervec>:
    80008600:	34051573          	csrrw	a0,mscratch,a0
    80008604:	e10c                	sd	a1,0(a0)
    80008606:	e510                	sd	a2,8(a0)
    80008608:	e914                	sd	a3,16(a0)
    8000860a:	6d0c                	ld	a1,24(a0)
    8000860c:	7110                	ld	a2,32(a0)
    8000860e:	6194                	ld	a3,0(a1)
    80008610:	96b2                	add	a3,a3,a2
    80008612:	e194                	sd	a3,0(a1)
    80008614:	4589                	li	a1,2
    80008616:	14459073          	csrw	sip,a1
    8000861a:	610c                	ld	a1,0(a0)
    8000861c:	6510                	ld	a2,8(a0)
    8000861e:	6914                	ld	a3,16(a0)
    80008620:	34051573          	csrrw	a0,mscratch,a0
    80008624:	30200073          	mret
    80008628:	0000                	unimp
	...

000000008000862c <r_sstatus>:
    8000862c:	fe010113          	addi	sp,sp,-32
    80008630:	00813c23          	sd	s0,24(sp)
    80008634:	02010413          	addi	s0,sp,32
    80008638:	100027f3          	csrr	a5,sstatus
    8000863c:	fef43423          	sd	a5,-24(s0)
    80008640:	fe843783          	ld	a5,-24(s0)
    80008644:	00078513          	mv	a0,a5
    80008648:	01813403          	ld	s0,24(sp)
    8000864c:	02010113          	addi	sp,sp,32
    80008650:	00008067          	ret

0000000080008654 <w_sstatus>:
    80008654:	fe010113          	addi	sp,sp,-32
    80008658:	00813c23          	sd	s0,24(sp)
    8000865c:	02010413          	addi	s0,sp,32
    80008660:	fea43423          	sd	a0,-24(s0)
    80008664:	fe843783          	ld	a5,-24(s0)
    80008668:	10079073          	csrw	sstatus,a5
    8000866c:	00000013          	nop
    80008670:	01813403          	ld	s0,24(sp)
    80008674:	02010113          	addi	sp,sp,32
    80008678:	00008067          	ret

000000008000867c <intr_on>:
    8000867c:	ff010113          	addi	sp,sp,-16
    80008680:	00113423          	sd	ra,8(sp)
    80008684:	00813023          	sd	s0,0(sp)
    80008688:	01010413          	addi	s0,sp,16
    8000868c:	00000097          	auipc	ra,0x0
    80008690:	fa0080e7          	jalr	-96(ra) # 8000862c <r_sstatus>
    80008694:	00050793          	mv	a5,a0
    80008698:	0027e793          	ori	a5,a5,2
    8000869c:	00078513          	mv	a0,a5
    800086a0:	00000097          	auipc	ra,0x0
    800086a4:	fb4080e7          	jalr	-76(ra) # 80008654 <w_sstatus>
    800086a8:	00000013          	nop
    800086ac:	00813083          	ld	ra,8(sp)
    800086b0:	00013403          	ld	s0,0(sp)
    800086b4:	01010113          	addi	sp,sp,16
    800086b8:	00008067          	ret

00000000800086bc <main>:
    800086bc:	ff010113          	addi	sp,sp,-16
    800086c0:	00113423          	sd	ra,8(sp)
    800086c4:	00813023          	sd	s0,0(sp)
    800086c8:	01010413          	addi	s0,sp,16
    800086cc:	00000097          	auipc	ra,0x0
    800086d0:	04c080e7          	jalr	76(ra) # 80008718 <printinit>
    800086d4:	00001097          	auipc	ra,0x1
    800086d8:	ecc080e7          	jalr	-308(ra) # 800095a0 <trapinit>
    800086dc:	00001097          	auipc	ra,0x1
    800086e0:	ff0080e7          	jalr	-16(ra) # 800096cc <plicinit>
    800086e4:	00001097          	auipc	ra,0x1
    800086e8:	024080e7          	jalr	36(ra) # 80009708 <plicinithart>
    800086ec:	00002517          	auipc	a0,0x2
    800086f0:	f3c50513          	addi	a0,a0,-196 # 8000a628 <memset+0x98>
    800086f4:	00000097          	auipc	ra,0x0
    800086f8:	468080e7          	jalr	1128(ra) # 80008b5c <print>
    800086fc:	00000097          	auipc	ra,0x0
    80008700:	7d0080e7          	jalr	2000(ra) # 80008ecc <user_init>
    80008704:	00002097          	auipc	ra,0x2
    80008708:	a00080e7          	jalr	-1536(ra) # 8000a104 <virtio_disk_init>
    8000870c:	00000097          	auipc	ra,0x0
    80008710:	f70080e7          	jalr	-144(ra) # 8000867c <intr_on>
    80008714:	0000006f          	j	80008714 <main+0x58>

0000000080008718 <printinit>:
    80008718:	ff010113          	addi	sp,sp,-16
    8000871c:	00113423          	sd	ra,8(sp)
    80008720:	00813023          	sd	s0,0(sp)
    80008724:	01010413          	addi	s0,sp,16
    80008728:	00001097          	auipc	ra,0x1
    8000872c:	900080e7          	jalr	-1792(ra) # 80009028 <uartinit>
    80008730:	00000013          	nop
    80008734:	00813083          	ld	ra,8(sp)
    80008738:	00013403          	ld	s0,0(sp)
    8000873c:	01010113          	addi	sp,sp,16
    80008740:	00008067          	ret

0000000080008744 <printInt>:
    80008744:	fc010113          	addi	sp,sp,-64
    80008748:	02113c23          	sd	ra,56(sp)
    8000874c:	02813823          	sd	s0,48(sp)
    80008750:	04010413          	addi	s0,sp,64
    80008754:	00050793          	mv	a5,a0
    80008758:	00058713          	mv	a4,a1
    8000875c:	fcf42623          	sw	a5,-52(s0)
    80008760:	00070793          	mv	a5,a4
    80008764:	fcf42423          	sw	a5,-56(s0)
    80008768:	fe042623          	sw	zero,-20(s0)
    8000876c:	fcc42703          	lw	a4,-52(s0)
    80008770:	00a00793          	li	a5,10
    80008774:	02f767bb          	remw	a5,a4,a5
    80008778:	0007871b          	sext.w	a4,a5
    8000877c:	fec42783          	lw	a5,-20(s0)
    80008780:	0017869b          	addiw	a3,a5,1
    80008784:	fed42623          	sw	a3,-20(s0)
    80008788:	00003697          	auipc	a3,0x3
    8000878c:	87868693          	addi	a3,a3,-1928 # 8000b000 <nums>
    80008790:	00e68733          	add	a4,a3,a4
    80008794:	00074703          	lbu	a4,0(a4)
    80008798:	ff040693          	addi	a3,s0,-16
    8000879c:	00f687b3          	add	a5,a3,a5
    800087a0:	fee78423          	sb	a4,-24(a5)
    800087a4:	fcc42703          	lw	a4,-52(s0)
    800087a8:	00a00793          	li	a5,10
    800087ac:	02f747bb          	divw	a5,a4,a5
    800087b0:	fcf42623          	sw	a5,-52(s0)
    800087b4:	fcc42783          	lw	a5,-52(s0)
    800087b8:	0007879b          	sext.w	a5,a5
    800087bc:	faf048e3          	bgtz	a5,8000876c <printInt+0x28>
    800087c0:	fec42783          	lw	a5,-20(s0)
    800087c4:	fff7879b          	addiw	a5,a5,-1
    800087c8:	fef42623          	sw	a5,-20(s0)
    800087cc:	02c0006f          	j	800087f8 <printInt+0xb4>
    800087d0:	fec42783          	lw	a5,-20(s0)
    800087d4:	ff040713          	addi	a4,s0,-16
    800087d8:	00f707b3          	add	a5,a4,a5
    800087dc:	fe87c783          	lbu	a5,-24(a5)
    800087e0:	00078513          	mv	a0,a5
    800087e4:	00000097          	auipc	ra,0x0
    800087e8:	798080e7          	jalr	1944(ra) # 80008f7c <uart_putc>
    800087ec:	fec42783          	lw	a5,-20(s0)
    800087f0:	fff7879b          	addiw	a5,a5,-1
    800087f4:	fef42623          	sw	a5,-20(s0)
    800087f8:	fec42783          	lw	a5,-20(s0)
    800087fc:	0007879b          	sext.w	a5,a5
    80008800:	fc07d8e3          	bgez	a5,800087d0 <printInt+0x8c>
    80008804:	00000013          	nop
    80008808:	00000013          	nop
    8000880c:	03813083          	ld	ra,56(sp)
    80008810:	03013403          	ld	s0,48(sp)
    80008814:	04010113          	addi	sp,sp,64
    80008818:	00008067          	ret

000000008000881c <printPtr>:
    8000881c:	fd010113          	addi	sp,sp,-48
    80008820:	02113423          	sd	ra,40(sp)
    80008824:	02813023          	sd	s0,32(sp)
    80008828:	03010413          	addi	s0,sp,48
    8000882c:	fca43c23          	sd	a0,-40(s0)
    80008830:	fd843783          	ld	a5,-40(s0)
    80008834:	06078a63          	beqz	a5,800088a8 <printPtr+0x8c>
    80008838:	03000513          	li	a0,48
    8000883c:	00000097          	auipc	ra,0x0
    80008840:	740080e7          	jalr	1856(ra) # 80008f7c <uart_putc>
    80008844:	07800513          	li	a0,120
    80008848:	00000097          	auipc	ra,0x0
    8000884c:	734080e7          	jalr	1844(ra) # 80008f7c <uart_putc>
    80008850:	fe042623          	sw	zero,-20(s0)
    80008854:	0400006f          	j	80008894 <printPtr+0x78>
    80008858:	fd843783          	ld	a5,-40(s0)
    8000885c:	03c7d793          	srli	a5,a5,0x3c
    80008860:	00002717          	auipc	a4,0x2
    80008864:	7a070713          	addi	a4,a4,1952 # 8000b000 <nums>
    80008868:	00f707b3          	add	a5,a4,a5
    8000886c:	0007c783          	lbu	a5,0(a5)
    80008870:	00078513          	mv	a0,a5
    80008874:	00000097          	auipc	ra,0x0
    80008878:	708080e7          	jalr	1800(ra) # 80008f7c <uart_putc>
    8000887c:	fec42783          	lw	a5,-20(s0)
    80008880:	0017879b          	addiw	a5,a5,1
    80008884:	fef42623          	sw	a5,-20(s0)
    80008888:	fd843783          	ld	a5,-40(s0)
    8000888c:	00479793          	slli	a5,a5,0x4
    80008890:	fcf43c23          	sd	a5,-40(s0)
    80008894:	fec42783          	lw	a5,-20(s0)
    80008898:	00078713          	mv	a4,a5
    8000889c:	00f00793          	li	a5,15
    800088a0:	fae7fce3          	bgeu	a5,a4,80008858 <printPtr+0x3c>
    800088a4:	0080006f          	j	800088ac <printPtr+0x90>
    800088a8:	00000013          	nop
    800088ac:	02813083          	ld	ra,40(sp)
    800088b0:	02013403          	ld	s0,32(sp)
    800088b4:	03010113          	addi	sp,sp,48
    800088b8:	00008067          	ret

00000000800088bc <printP>:
    800088bc:	fb010113          	addi	sp,sp,-80
    800088c0:	04113423          	sd	ra,72(sp)
    800088c4:	04813023          	sd	s0,64(sp)
    800088c8:	05010413          	addi	s0,sp,80
    800088cc:	faa43c23          	sd	a0,-72(s0)
    800088d0:	03000513          	li	a0,48
    800088d4:	00000097          	auipc	ra,0x0
    800088d8:	6a8080e7          	jalr	1704(ra) # 80008f7c <uart_putc>
    800088dc:	07800513          	li	a0,120
    800088e0:	00000097          	auipc	ra,0x0
    800088e4:	69c080e7          	jalr	1692(ra) # 80008f7c <uart_putc>
    800088e8:	fb843783          	ld	a5,-72(s0)
    800088ec:	0007879b          	sext.w	a5,a5
    800088f0:	00f7f793          	andi	a5,a5,15
    800088f4:	fef42423          	sw	a5,-24(s0)
    800088f8:	fec42783          	lw	a5,-20(s0)
    800088fc:	0017871b          	addiw	a4,a5,1
    80008900:	fee42623          	sw	a4,-20(s0)
    80008904:	00002697          	auipc	a3,0x2
    80008908:	6fc68693          	addi	a3,a3,1788 # 8000b000 <nums>
    8000890c:	fe842703          	lw	a4,-24(s0)
    80008910:	00e68733          	add	a4,a3,a4
    80008914:	00074703          	lbu	a4,0(a4)
    80008918:	ff040693          	addi	a3,s0,-16
    8000891c:	00f687b3          	add	a5,a3,a5
    80008920:	fce78c23          	sb	a4,-40(a5)
    80008924:	fb843783          	ld	a5,-72(s0)
    80008928:	0047d793          	srli	a5,a5,0x4
    8000892c:	faf43c23          	sd	a5,-72(s0)
    80008930:	fb843783          	ld	a5,-72(s0)
    80008934:	fa079ae3          	bnez	a5,800088e8 <printP+0x2c>
    80008938:	fec42783          	lw	a5,-20(s0)
    8000893c:	fff7879b          	addiw	a5,a5,-1
    80008940:	fef42623          	sw	a5,-20(s0)
    80008944:	02c0006f          	j	80008970 <printP+0xb4>
    80008948:	fec42783          	lw	a5,-20(s0)
    8000894c:	ff040713          	addi	a4,s0,-16
    80008950:	00f707b3          	add	a5,a4,a5
    80008954:	fd87c783          	lbu	a5,-40(a5)
    80008958:	00078513          	mv	a0,a5
    8000895c:	00000097          	auipc	ra,0x0
    80008960:	620080e7          	jalr	1568(ra) # 80008f7c <uart_putc>
    80008964:	fec42783          	lw	a5,-20(s0)
    80008968:	fff7879b          	addiw	a5,a5,-1
    8000896c:	fef42623          	sw	a5,-20(s0)
    80008970:	fec42783          	lw	a5,-20(s0)
    80008974:	0007879b          	sext.w	a5,a5
    80008978:	fc07d8e3          	bgez	a5,80008948 <printP+0x8c>
    8000897c:	00000013          	nop
    80008980:	00000013          	nop
    80008984:	04813083          	ld	ra,72(sp)
    80008988:	04013403          	ld	s0,64(sp)
    8000898c:	05010113          	addi	sp,sp,80
    80008990:	00008067          	ret

0000000080008994 <printf>:
    80008994:	f8010113          	addi	sp,sp,-128
    80008998:	02113c23          	sd	ra,56(sp)
    8000899c:	02813823          	sd	s0,48(sp)
    800089a0:	04010413          	addi	s0,sp,64
    800089a4:	fca43423          	sd	a0,-56(s0)
    800089a8:	00b43423          	sd	a1,8(s0)
    800089ac:	00c43823          	sd	a2,16(s0)
    800089b0:	00d43c23          	sd	a3,24(s0)
    800089b4:	02e43023          	sd	a4,32(s0)
    800089b8:	02f43423          	sd	a5,40(s0)
    800089bc:	03043823          	sd	a6,48(s0)
    800089c0:	03143c23          	sd	a7,56(s0)
    800089c4:	fc843783          	ld	a5,-56(s0)
    800089c8:	18078063          	beqz	a5,80008b48 <printf+0x1b4>
    800089cc:	04040793          	addi	a5,s0,64
    800089d0:	fcf43023          	sd	a5,-64(s0)
    800089d4:	fc043783          	ld	a5,-64(s0)
    800089d8:	fc878793          	addi	a5,a5,-56
    800089dc:	fcf43c23          	sd	a5,-40(s0)
    800089e0:	fe042623          	sw	zero,-20(s0)
    800089e4:	14c0006f          	j	80008b30 <printf+0x19c>
    800089e8:	fec42783          	lw	a5,-20(s0)
    800089ec:	fc843703          	ld	a4,-56(s0)
    800089f0:	00f707b3          	add	a5,a4,a5
    800089f4:	0007c783          	lbu	a5,0(a5)
    800089f8:	fef405a3          	sb	a5,-21(s0)
    800089fc:	feb44783          	lbu	a5,-21(s0)
    80008a00:	0ff7f713          	andi	a4,a5,255
    80008a04:	02500793          	li	a5,37
    80008a08:	00f70c63          	beq	a4,a5,80008a20 <printf+0x8c>
    80008a0c:	feb44783          	lbu	a5,-21(s0)
    80008a10:	00078513          	mv	a0,a5
    80008a14:	00000097          	auipc	ra,0x0
    80008a18:	568080e7          	jalr	1384(ra) # 80008f7c <uart_putc>
    80008a1c:	1080006f          	j	80008b24 <printf+0x190>
    80008a20:	fec42783          	lw	a5,-20(s0)
    80008a24:	0017879b          	addiw	a5,a5,1
    80008a28:	fef42623          	sw	a5,-20(s0)
    80008a2c:	fec42783          	lw	a5,-20(s0)
    80008a30:	fc843703          	ld	a4,-56(s0)
    80008a34:	00f707b3          	add	a5,a4,a5
    80008a38:	0007c783          	lbu	a5,0(a5)
    80008a3c:	fef40523          	sb	a5,-22(s0)
    80008a40:	fea44783          	lbu	a5,-22(s0)
    80008a44:	0ff7f793          	andi	a5,a5,255
    80008a48:	00079c63          	bnez	a5,80008a60 <printf+0xcc>
    80008a4c:	feb44783          	lbu	a5,-21(s0)
    80008a50:	00078513          	mv	a0,a5
    80008a54:	00000097          	auipc	ra,0x0
    80008a58:	528080e7          	jalr	1320(ra) # 80008f7c <uart_putc>
    80008a5c:	0c80006f          	j	80008b24 <printf+0x190>
    80008a60:	fea44783          	lbu	a5,-22(s0)
    80008a64:	0007879b          	sext.w	a5,a5
    80008a68:	00078693          	mv	a3,a5
    80008a6c:	07300713          	li	a4,115
    80008a70:	04e68863          	beq	a3,a4,80008ac0 <printf+0x12c>
    80008a74:	00078693          	mv	a3,a5
    80008a78:	07300713          	li	a4,115
    80008a7c:	08d74863          	blt	a4,a3,80008b0c <printf+0x178>
    80008a80:	00078693          	mv	a3,a5
    80008a84:	06400713          	li	a4,100
    80008a88:	00e68a63          	beq	a3,a4,80008a9c <printf+0x108>
    80008a8c:	00078713          	mv	a4,a5
    80008a90:	07000793          	li	a5,112
    80008a94:	04f70c63          	beq	a4,a5,80008aec <printf+0x158>
    80008a98:	0740006f          	j	80008b0c <printf+0x178>
    80008a9c:	fd843783          	ld	a5,-40(s0)
    80008aa0:	00878713          	addi	a4,a5,8
    80008aa4:	fce43c23          	sd	a4,-40(s0)
    80008aa8:	0007a783          	lw	a5,0(a5)
    80008aac:	00100593          	li	a1,1
    80008ab0:	00078513          	mv	a0,a5
    80008ab4:	00000097          	auipc	ra,0x0
    80008ab8:	c90080e7          	jalr	-880(ra) # 80008744 <printInt>
    80008abc:	0680006f          	j	80008b24 <printf+0x190>
    80008ac0:	fd843783          	ld	a5,-40(s0)
    80008ac4:	00878713          	addi	a4,a5,8
    80008ac8:	fce43c23          	sd	a4,-40(s0)
    80008acc:	0007b783          	ld	a5,0(a5)
    80008ad0:	fef43023          	sd	a5,-32(s0)
    80008ad4:	fe043783          	ld	a5,-32(s0)
    80008ad8:	04078463          	beqz	a5,80008b20 <printf+0x18c>
    80008adc:	fe043503          	ld	a0,-32(s0)
    80008ae0:	00000097          	auipc	ra,0x0
    80008ae4:	07c080e7          	jalr	124(ra) # 80008b5c <print>
    80008ae8:	0380006f          	j	80008b20 <printf+0x18c>
    80008aec:	fd843783          	ld	a5,-40(s0)
    80008af0:	00878713          	addi	a4,a5,8
    80008af4:	fce43c23          	sd	a4,-40(s0)
    80008af8:	0007b783          	ld	a5,0(a5)
    80008afc:	00078513          	mv	a0,a5
    80008b00:	00000097          	auipc	ra,0x0
    80008b04:	d1c080e7          	jalr	-740(ra) # 8000881c <printPtr>
    80008b08:	01c0006f          	j	80008b24 <printf+0x190>
    80008b0c:	fea44783          	lbu	a5,-22(s0)
    80008b10:	00078513          	mv	a0,a5
    80008b14:	00000097          	auipc	ra,0x0
    80008b18:	468080e7          	jalr	1128(ra) # 80008f7c <uart_putc>
    80008b1c:	0080006f          	j	80008b24 <printf+0x190>
    80008b20:	00000013          	nop
    80008b24:	fec42783          	lw	a5,-20(s0)
    80008b28:	0017879b          	addiw	a5,a5,1
    80008b2c:	fef42623          	sw	a5,-20(s0)
    80008b30:	fec42783          	lw	a5,-20(s0)
    80008b34:	fc843703          	ld	a4,-56(s0)
    80008b38:	00f707b3          	add	a5,a4,a5
    80008b3c:	0007c783          	lbu	a5,0(a5)
    80008b40:	ea0794e3          	bnez	a5,800089e8 <printf+0x54>
    80008b44:	0080006f          	j	80008b4c <printf+0x1b8>
    80008b48:	00000013          	nop
    80008b4c:	03813083          	ld	ra,56(sp)
    80008b50:	03013403          	ld	s0,48(sp)
    80008b54:	08010113          	addi	sp,sp,128
    80008b58:	00008067          	ret

0000000080008b5c <print>:
    80008b5c:	fe010113          	addi	sp,sp,-32
    80008b60:	00113c23          	sd	ra,24(sp)
    80008b64:	00813823          	sd	s0,16(sp)
    80008b68:	02010413          	addi	s0,sp,32
    80008b6c:	fea43423          	sd	a0,-24(s0)
    80008b70:	fe843503          	ld	a0,-24(s0)
    80008b74:	00000097          	auipc	ra,0x0
    80008b78:	45c080e7          	jalr	1116(ra) # 80008fd0 <uart_putstr>
    80008b7c:	00000013          	nop
    80008b80:	01813083          	ld	ra,24(sp)
    80008b84:	01013403          	ld	s0,16(sp)
    80008b88:	02010113          	addi	sp,sp,32
    80008b8c:	00008067          	ret

0000000080008b90 <println>:
    80008b90:	fd010113          	addi	sp,sp,-48
    80008b94:	02113423          	sd	ra,40(sp)
    80008b98:	02813023          	sd	s0,32(sp)
    80008b9c:	03010413          	addi	s0,sp,48
    80008ba0:	fca43c23          	sd	a0,-40(s0)
    80008ba4:	00002797          	auipc	a5,0x2
    80008ba8:	a9478793          	addi	a5,a5,-1388 # 8000a638 <memset+0xa8>
    80008bac:	fef43423          	sd	a5,-24(s0)
    80008bb0:	fd843503          	ld	a0,-40(s0)
    80008bb4:	00000097          	auipc	ra,0x0
    80008bb8:	41c080e7          	jalr	1052(ra) # 80008fd0 <uart_putstr>
    80008bbc:	fe843503          	ld	a0,-24(s0)
    80008bc0:	00000097          	auipc	ra,0x0
    80008bc4:	410080e7          	jalr	1040(ra) # 80008fd0 <uart_putstr>
    80008bc8:	00000013          	nop
    80008bcc:	02813083          	ld	ra,40(sp)
    80008bd0:	02013403          	ld	s0,32(sp)
    80008bd4:	03010113          	addi	sp,sp,48
    80008bd8:	00008067          	ret

0000000080008bdc <run_os_task>:
    80008bdc:	fe010113          	addi	sp,sp,-32
    80008be0:	00113c23          	sd	ra,24(sp)
    80008be4:	00813823          	sd	s0,16(sp)
    80008be8:	02010413          	addi	s0,sp,32
    80008bec:	00002517          	auipc	a0,0x2
    80008bf0:	a5450513          	addi	a0,a0,-1452 # 8000a640 <memset+0xb0>
    80008bf4:	00000097          	auipc	ra,0x0
    80008bf8:	da0080e7          	jalr	-608(ra) # 80008994 <printf>
    80008bfc:	00003797          	auipc	a5,0x3
    80008c00:	40478793          	addi	a5,a5,1028 # 8000c000 <current_task>
    80008c04:	0007b783          	ld	a5,0(a5)
    80008c08:	fef43423          	sd	a5,-24(s0)
    80008c0c:	00003797          	auipc	a5,0x3
    80008c10:	3f478793          	addi	a5,a5,1012 # 8000c000 <current_task>
    80008c14:	0081f717          	auipc	a4,0x81f
    80008c18:	54470713          	addi	a4,a4,1348 # 80828158 <os_task>
    80008c1c:	00e7b023          	sd	a4,0(a5)
    80008c20:	0081f597          	auipc	a1,0x81f
    80008c24:	53858593          	addi	a1,a1,1336 # 80828158 <os_task>
    80008c28:	fe843503          	ld	a0,-24(s0)
    80008c2c:	00000097          	auipc	ra,0x0
    80008c30:	2e4080e7          	jalr	740(ra) # 80008f10 <swtch>
    80008c34:	00000013          	nop
    80008c38:	01813083          	ld	ra,24(sp)
    80008c3c:	01013403          	ld	s0,16(sp)
    80008c40:	02010113          	addi	sp,sp,32
    80008c44:	00008067          	ret

0000000080008c48 <run_target_task_num>:
    80008c48:	fe010113          	addi	sp,sp,-32
    80008c4c:	00113c23          	sd	ra,24(sp)
    80008c50:	00813823          	sd	s0,16(sp)
    80008c54:	02010413          	addi	s0,sp,32
    80008c58:	00050793          	mv	a5,a0
    80008c5c:	fef42623          	sw	a5,-20(s0)
    80008c60:	fec42783          	lw	a5,-20(s0)
    80008c64:	00078593          	mv	a1,a5
    80008c68:	00002517          	auipc	a0,0x2
    80008c6c:	9f050513          	addi	a0,a0,-1552 # 8000a658 <memset+0xc8>
    80008c70:	00000097          	auipc	ra,0x0
    80008c74:	d24080e7          	jalr	-732(ra) # 80008994 <printf>
    80008c78:	fec42703          	lw	a4,-20(s0)
    80008c7c:	00070793          	mv	a5,a4
    80008c80:	00379793          	slli	a5,a5,0x3
    80008c84:	40e787b3          	sub	a5,a5,a4
    80008c88:	00479793          	slli	a5,a5,0x4
    80008c8c:	00803717          	auipc	a4,0x803
    80008c90:	4cc70713          	addi	a4,a4,1228 # 8080c158 <tasks>
    80008c94:	00e78733          	add	a4,a5,a4
    80008c98:	00003797          	auipc	a5,0x3
    80008c9c:	36878793          	addi	a5,a5,872 # 8000c000 <current_task>
    80008ca0:	00e7b023          	sd	a4,0(a5)
    80008ca4:	00003797          	auipc	a5,0x3
    80008ca8:	35c78793          	addi	a5,a5,860 # 8000c000 <current_task>
    80008cac:	0007b783          	ld	a5,0(a5)
    80008cb0:	0007b783          	ld	a5,0(a5)
    80008cb4:	00078513          	mv	a0,a5
    80008cb8:	00000097          	auipc	ra,0x0
    80008cbc:	c04080e7          	jalr	-1020(ra) # 800088bc <printP>
    80008cc0:	00003797          	auipc	a5,0x3
    80008cc4:	34078793          	addi	a5,a5,832 # 8000c000 <current_task>
    80008cc8:	0007b783          	ld	a5,0(a5)
    80008ccc:	00078593          	mv	a1,a5
    80008cd0:	0081f517          	auipc	a0,0x81f
    80008cd4:	48850513          	addi	a0,a0,1160 # 80828158 <os_task>
    80008cd8:	00000097          	auipc	ra,0x0
    80008cdc:	238080e7          	jalr	568(ra) # 80008f10 <swtch>
    80008ce0:	00000013          	nop
    80008ce4:	01813083          	ld	ra,24(sp)
    80008ce8:	01013403          	ld	s0,16(sp)
    80008cec:	02010113          	addi	sp,sp,32
    80008cf0:	00008067          	ret

0000000080008cf4 <get_tasks>:
    80008cf4:	ff010113          	addi	sp,sp,-16
    80008cf8:	00813423          	sd	s0,8(sp)
    80008cfc:	01010413          	addi	s0,sp,16
    80008d00:	0081f797          	auipc	a5,0x81f
    80008d04:	4c878793          	addi	a5,a5,1224 # 808281c8 <taskTop>
    80008d08:	0007a783          	lw	a5,0(a5)
    80008d0c:	00078513          	mv	a0,a5
    80008d10:	00813403          	ld	s0,8(sp)
    80008d14:	01010113          	addi	sp,sp,16
    80008d18:	00008067          	ret

0000000080008d1c <user_task0>:
    80008d1c:	fe010113          	addi	sp,sp,-32
    80008d20:	00113c23          	sd	ra,24(sp)
    80008d24:	00813823          	sd	s0,16(sp)
    80008d28:	02010413          	addi	s0,sp,32
    80008d2c:	00002517          	auipc	a0,0x2
    80008d30:	94450513          	addi	a0,a0,-1724 # 8000a670 <memset+0xe0>
    80008d34:	00000097          	auipc	ra,0x0
    80008d38:	e28080e7          	jalr	-472(ra) # 80008b5c <print>
    80008d3c:	00002517          	auipc	a0,0x2
    80008d40:	94c50513          	addi	a0,a0,-1716 # 8000a688 <memset+0xf8>
    80008d44:	00000097          	auipc	ra,0x0
    80008d48:	e18080e7          	jalr	-488(ra) # 80008b5c <print>
    80008d4c:	00000097          	auipc	ra,0x0
    80008d50:	e90080e7          	jalr	-368(ra) # 80008bdc <run_os_task>
    80008d54:	00002517          	auipc	a0,0x2
    80008d58:	95c50513          	addi	a0,a0,-1700 # 8000a6b0 <memset+0x120>
    80008d5c:	00000097          	auipc	ra,0x0
    80008d60:	e00080e7          	jalr	-512(ra) # 80008b5c <print>
    80008d64:	fe042623          	sw	zero,-20(s0)
    80008d68:	0100006f          	j	80008d78 <user_task0+0x5c>
    80008d6c:	fec42783          	lw	a5,-20(s0)
    80008d70:	0017879b          	addiw	a5,a5,1
    80008d74:	fef42623          	sw	a5,-20(s0)
    80008d78:	fec42783          	lw	a5,-20(s0)
    80008d7c:	0007871b          	sext.w	a4,a5
    80008d80:	009897b7          	lui	a5,0x989
    80008d84:	67f78793          	addi	a5,a5,1663 # 98967f <STACK_SIZE+0x98767f>
    80008d88:	fee7d2e3          	bge	a5,a4,80008d6c <user_task0+0x50>
    80008d8c:	00000097          	auipc	ra,0x0
    80008d90:	e50080e7          	jalr	-432(ra) # 80008bdc <run_os_task>
    80008d94:	fc1ff06f          	j	80008d54 <user_task0+0x38>

0000000080008d98 <user_task1>:
    80008d98:	fe010113          	addi	sp,sp,-32
    80008d9c:	00113c23          	sd	ra,24(sp)
    80008da0:	00813823          	sd	s0,16(sp)
    80008da4:	02010413          	addi	s0,sp,32
    80008da8:	00002517          	auipc	a0,0x2
    80008dac:	92050513          	addi	a0,a0,-1760 # 8000a6c8 <memset+0x138>
    80008db0:	00000097          	auipc	ra,0x0
    80008db4:	dac080e7          	jalr	-596(ra) # 80008b5c <print>
    80008db8:	00002517          	auipc	a0,0x2
    80008dbc:	92850513          	addi	a0,a0,-1752 # 8000a6e0 <memset+0x150>
    80008dc0:	00000097          	auipc	ra,0x0
    80008dc4:	d9c080e7          	jalr	-612(ra) # 80008b5c <print>
    80008dc8:	00000097          	auipc	ra,0x0
    80008dcc:	e14080e7          	jalr	-492(ra) # 80008bdc <run_os_task>
    80008dd0:	00002517          	auipc	a0,0x2
    80008dd4:	93850513          	addi	a0,a0,-1736 # 8000a708 <memset+0x178>
    80008dd8:	00000097          	auipc	ra,0x0
    80008ddc:	d84080e7          	jalr	-636(ra) # 80008b5c <print>
    80008de0:	fe042623          	sw	zero,-20(s0)
    80008de4:	0100006f          	j	80008df4 <user_task1+0x5c>
    80008de8:	fec42783          	lw	a5,-20(s0)
    80008dec:	0017879b          	addiw	a5,a5,1
    80008df0:	fef42623          	sw	a5,-20(s0)
    80008df4:	fec42783          	lw	a5,-20(s0)
    80008df8:	0007871b          	sext.w	a4,a5
    80008dfc:	009897b7          	lui	a5,0x989
    80008e00:	67f78793          	addi	a5,a5,1663 # 98967f <STACK_SIZE+0x98767f>
    80008e04:	fee7d2e3          	bge	a5,a4,80008de8 <user_task1+0x50>
    80008e08:	00000097          	auipc	ra,0x0
    80008e0c:	dd4080e7          	jalr	-556(ra) # 80008bdc <run_os_task>
    80008e10:	fc1ff06f          	j	80008dd0 <user_task1+0x38>

0000000080008e14 <task_create>:
    80008e14:	fd010113          	addi	sp,sp,-48
    80008e18:	02813423          	sd	s0,40(sp)
    80008e1c:	03010413          	addi	s0,sp,48
    80008e20:	fca43c23          	sd	a0,-40(s0)
    80008e24:	0081f797          	auipc	a5,0x81f
    80008e28:	3a478793          	addi	a5,a5,932 # 808281c8 <taskTop>
    80008e2c:	0007a783          	lw	a5,0(a5)
    80008e30:	0017871b          	addiw	a4,a5,1
    80008e34:	0007069b          	sext.w	a3,a4
    80008e38:	0081f717          	auipc	a4,0x81f
    80008e3c:	39070713          	addi	a4,a4,912 # 808281c8 <taskTop>
    80008e40:	00d72023          	sw	a3,0(a4)
    80008e44:	fef42623          	sw	a5,-20(s0)
    80008e48:	fd843683          	ld	a3,-40(s0)
    80008e4c:	00803617          	auipc	a2,0x803
    80008e50:	30c60613          	addi	a2,a2,780 # 8080c158 <tasks>
    80008e54:	fec42703          	lw	a4,-20(s0)
    80008e58:	00070793          	mv	a5,a4
    80008e5c:	00379793          	slli	a5,a5,0x3
    80008e60:	40e787b3          	sub	a5,a5,a4
    80008e64:	00479793          	slli	a5,a5,0x4
    80008e68:	00f607b3          	add	a5,a2,a5
    80008e6c:	00d7b023          	sd	a3,0(a5)
    80008e70:	fec42783          	lw	a5,-20(s0)
    80008e74:	00d79713          	slli	a4,a5,0xd
    80008e78:	000027b7          	lui	a5,0x2
    80008e7c:	ff878793          	addi	a5,a5,-8 # 1ff8 <STACK_SIZE-0x8>
    80008e80:	00f70733          	add	a4,a4,a5
    80008e84:	00003797          	auipc	a5,0x3
    80008e88:	2d478793          	addi	a5,a5,724 # 8000c158 <task_stack>
    80008e8c:	00f707b3          	add	a5,a4,a5
    80008e90:	00078613          	mv	a2,a5
    80008e94:	00803697          	auipc	a3,0x803
    80008e98:	2c468693          	addi	a3,a3,708 # 8080c158 <tasks>
    80008e9c:	fec42703          	lw	a4,-20(s0)
    80008ea0:	00070793          	mv	a5,a4
    80008ea4:	00379793          	slli	a5,a5,0x3
    80008ea8:	40e787b3          	sub	a5,a5,a4
    80008eac:	00479793          	slli	a5,a5,0x4
    80008eb0:	00f687b3          	add	a5,a3,a5
    80008eb4:	00c7b423          	sd	a2,8(a5)
    80008eb8:	fec42783          	lw	a5,-20(s0)
    80008ebc:	00078513          	mv	a0,a5
    80008ec0:	02813403          	ld	s0,40(sp)
    80008ec4:	03010113          	addi	sp,sp,48
    80008ec8:	00008067          	ret

0000000080008ecc <user_init>:
    80008ecc:	ff010113          	addi	sp,sp,-16
    80008ed0:	00113423          	sd	ra,8(sp)
    80008ed4:	00813023          	sd	s0,0(sp)
    80008ed8:	01010413          	addi	s0,sp,16
    80008edc:	00000517          	auipc	a0,0x0
    80008ee0:	e4050513          	addi	a0,a0,-448 # 80008d1c <user_task0>
    80008ee4:	00000097          	auipc	ra,0x0
    80008ee8:	f30080e7          	jalr	-208(ra) # 80008e14 <task_create>
    80008eec:	00000517          	auipc	a0,0x0
    80008ef0:	eac50513          	addi	a0,a0,-340 # 80008d98 <user_task1>
    80008ef4:	00000097          	auipc	ra,0x0
    80008ef8:	f20080e7          	jalr	-224(ra) # 80008e14 <task_create>
    80008efc:	00000013          	nop
    80008f00:	00813083          	ld	ra,8(sp)
    80008f04:	00013403          	ld	s0,0(sp)
    80008f08:	01010113          	addi	sp,sp,16
    80008f0c:	00008067          	ret

0000000080008f10 <swtch>:
    80008f10:	00153023          	sd	ra,0(a0)
    80008f14:	00253423          	sd	sp,8(a0)
    80008f18:	e900                	sd	s0,16(a0)
    80008f1a:	ed04                	sd	s1,24(a0)
    80008f1c:	03253023          	sd	s2,32(a0)
    80008f20:	03353423          	sd	s3,40(a0)
    80008f24:	03453823          	sd	s4,48(a0)
    80008f28:	03553c23          	sd	s5,56(a0)
    80008f2c:	05653023          	sd	s6,64(a0)
    80008f30:	05753423          	sd	s7,72(a0)
    80008f34:	05853823          	sd	s8,80(a0)
    80008f38:	05953c23          	sd	s9,88(a0)
    80008f3c:	07a53023          	sd	s10,96(a0)
    80008f40:	07b53423          	sd	s11,104(a0)
    80008f44:	0005b083          	ld	ra,0(a1)
    80008f48:	0085b103          	ld	sp,8(a1)
    80008f4c:	6980                	ld	s0,16(a1)
    80008f4e:	6d84                	ld	s1,24(a1)
    80008f50:	0205b903          	ld	s2,32(a1)
    80008f54:	0285b983          	ld	s3,40(a1)
    80008f58:	0305ba03          	ld	s4,48(a1)
    80008f5c:	0385ba83          	ld	s5,56(a1)
    80008f60:	0405bb03          	ld	s6,64(a1)
    80008f64:	0485bb83          	ld	s7,72(a1)
    80008f68:	0505bc03          	ld	s8,80(a1)
    80008f6c:	0585bc83          	ld	s9,88(a1)
    80008f70:	0605bd03          	ld	s10,96(a1)
    80008f74:	0685bd83          	ld	s11,104(a1)
    80008f78:	8082                	ret
	...

0000000080008f7c <uart_putc>:
    80008f7c:	fe010113          	addi	sp,sp,-32
    80008f80:	00813c23          	sd	s0,24(sp)
    80008f84:	02010413          	addi	s0,sp,32
    80008f88:	00050793          	mv	a5,a0
    80008f8c:	fef407a3          	sb	a5,-17(s0)
    80008f90:	00000013          	nop
    80008f94:	100007b7          	lui	a5,0x10000
    80008f98:	00578793          	addi	a5,a5,5 # 10000005 <STACK_SIZE+0xfffe005>
    80008f9c:	0007c783          	lbu	a5,0(a5)
    80008fa0:	0ff7f793          	andi	a5,a5,255
    80008fa4:	0007879b          	sext.w	a5,a5
    80008fa8:	0207f793          	andi	a5,a5,32
    80008fac:	0007879b          	sext.w	a5,a5
    80008fb0:	fe0782e3          	beqz	a5,80008f94 <uart_putc+0x18>
    80008fb4:	100007b7          	lui	a5,0x10000
    80008fb8:	fef44703          	lbu	a4,-17(s0)
    80008fbc:	00e78023          	sb	a4,0(a5) # 10000000 <STACK_SIZE+0xfffe000>
    80008fc0:	00000013          	nop
    80008fc4:	01813403          	ld	s0,24(sp)
    80008fc8:	02010113          	addi	sp,sp,32
    80008fcc:	00008067          	ret

0000000080008fd0 <uart_putstr>:
    80008fd0:	fe010113          	addi	sp,sp,-32
    80008fd4:	00113c23          	sd	ra,24(sp)
    80008fd8:	00813823          	sd	s0,16(sp)
    80008fdc:	02010413          	addi	s0,sp,32
    80008fe0:	fea43423          	sd	a0,-24(s0)
    80008fe4:	0200006f          	j	80009004 <uart_putstr+0x34>
    80008fe8:	fe843783          	ld	a5,-24(s0)
    80008fec:	00178713          	addi	a4,a5,1
    80008ff0:	fee43423          	sd	a4,-24(s0)
    80008ff4:	0007c783          	lbu	a5,0(a5)
    80008ff8:	00078513          	mv	a0,a5
    80008ffc:	00000097          	auipc	ra,0x0
    80009000:	f80080e7          	jalr	-128(ra) # 80008f7c <uart_putc>
    80009004:	fe843783          	ld	a5,-24(s0)
    80009008:	0007c783          	lbu	a5,0(a5)
    8000900c:	fc079ee3          	bnez	a5,80008fe8 <uart_putstr+0x18>
    80009010:	00000013          	nop
    80009014:	00000013          	nop
    80009018:	01813083          	ld	ra,24(sp)
    8000901c:	01013403          	ld	s0,16(sp)
    80009020:	02010113          	addi	sp,sp,32
    80009024:	00008067          	ret

0000000080009028 <uartinit>:
    80009028:	ff010113          	addi	sp,sp,-16
    8000902c:	00813423          	sd	s0,8(sp)
    80009030:	01010413          	addi	s0,sp,16
    80009034:	100007b7          	lui	a5,0x10000
    80009038:	00178793          	addi	a5,a5,1 # 10000001 <STACK_SIZE+0xfffe001>
    8000903c:	00078023          	sb	zero,0(a5)
    80009040:	100007b7          	lui	a5,0x10000
    80009044:	00378793          	addi	a5,a5,3 # 10000003 <STACK_SIZE+0xfffe003>
    80009048:	f8000713          	li	a4,-128
    8000904c:	00e78023          	sb	a4,0(a5)
    80009050:	100007b7          	lui	a5,0x10000
    80009054:	00300713          	li	a4,3
    80009058:	00e78023          	sb	a4,0(a5) # 10000000 <STACK_SIZE+0xfffe000>
    8000905c:	100007b7          	lui	a5,0x10000
    80009060:	00178793          	addi	a5,a5,1 # 10000001 <STACK_SIZE+0xfffe001>
    80009064:	00078023          	sb	zero,0(a5)
    80009068:	100007b7          	lui	a5,0x10000
    8000906c:	00378793          	addi	a5,a5,3 # 10000003 <STACK_SIZE+0xfffe003>
    80009070:	00300713          	li	a4,3
    80009074:	00e78023          	sb	a4,0(a5)
    80009078:	100007b7          	lui	a5,0x10000
    8000907c:	00278793          	addi	a5,a5,2 # 10000002 <STACK_SIZE+0xfffe002>
    80009080:	00700713          	li	a4,7
    80009084:	00e78023          	sb	a4,0(a5)
    80009088:	100007b7          	lui	a5,0x10000
    8000908c:	00178793          	addi	a5,a5,1 # 10000001 <STACK_SIZE+0xfffe001>
    80009090:	00300713          	li	a4,3
    80009094:	00e78023          	sb	a4,0(a5)
    80009098:	00000013          	nop
    8000909c:	00813403          	ld	s0,8(sp)
    800090a0:	01010113          	addi	sp,sp,16
    800090a4:	00008067          	ret

00000000800090a8 <uartgetc>:
    800090a8:	ff010113          	addi	sp,sp,-16
    800090ac:	00813423          	sd	s0,8(sp)
    800090b0:	01010413          	addi	s0,sp,16
    800090b4:	100007b7          	lui	a5,0x10000
    800090b8:	00578793          	addi	a5,a5,5 # 10000005 <STACK_SIZE+0xfffe005>
    800090bc:	0007c783          	lbu	a5,0(a5)
    800090c0:	0ff7f793          	andi	a5,a5,255
    800090c4:	0007879b          	sext.w	a5,a5
    800090c8:	0017f793          	andi	a5,a5,1
    800090cc:	0007879b          	sext.w	a5,a5
    800090d0:	00078c63          	beqz	a5,800090e8 <uartgetc+0x40>
    800090d4:	100007b7          	lui	a5,0x10000
    800090d8:	0007c783          	lbu	a5,0(a5) # 10000000 <STACK_SIZE+0xfffe000>
    800090dc:	0ff7f793          	andi	a5,a5,255
    800090e0:	0007879b          	sext.w	a5,a5
    800090e4:	0080006f          	j	800090ec <uartgetc+0x44>
    800090e8:	fff00793          	li	a5,-1
    800090ec:	00078513          	mv	a0,a5
    800090f0:	00813403          	ld	s0,8(sp)
    800090f4:	01010113          	addi	sp,sp,16
    800090f8:	00008067          	ret

00000000800090fc <uartinterrupt>:
    800090fc:	fe010113          	addi	sp,sp,-32
    80009100:	00113c23          	sd	ra,24(sp)
    80009104:	00813823          	sd	s0,16(sp)
    80009108:	02010413          	addi	s0,sp,32
    8000910c:	00003797          	auipc	a5,0x3
    80009110:	efc78793          	addi	a5,a5,-260 # 8000c008 <shellProcessored>
    80009114:	00100713          	li	a4,1
    80009118:	00e7a023          	sw	a4,0(a5)
    8000911c:	fe042623          	sw	zero,-20(s0)
    80009120:	00000097          	auipc	ra,0x0
    80009124:	f88080e7          	jalr	-120(ra) # 800090a8 <uartgetc>
    80009128:	00050793          	mv	a5,a0
    8000912c:	fef42423          	sw	a5,-24(s0)
    80009130:	fe842783          	lw	a5,-24(s0)
    80009134:	0007871b          	sext.w	a4,a5
    80009138:	fff00793          	li	a5,-1
    8000913c:	04f70263          	beq	a4,a5,80009180 <uartinterrupt+0x84>
    80009140:	fe842783          	lw	a5,-24(s0)
    80009144:	0007871b          	sext.w	a4,a5
    80009148:	00a00793          	li	a5,10
    8000914c:	00f71a63          	bne	a4,a5,80009160 <uartinterrupt+0x64>
    80009150:	00003797          	auipc	a5,0x3
    80009154:	eb878793          	addi	a5,a5,-328 # 8000c008 <shellProcessored>
    80009158:	0007a023          	sw	zero,0(a5)
    8000915c:	0280006f          	j	80009184 <uartinterrupt+0x88>
    80009160:	fe842783          	lw	a5,-24(s0)
    80009164:	0ff7f713          	andi	a4,a5,255
    80009168:	0081f697          	auipc	a3,0x81f
    8000916c:	06868693          	addi	a3,a3,104 # 808281d0 <cmd>
    80009170:	fec42783          	lw	a5,-20(s0)
    80009174:	00f687b3          	add	a5,a3,a5
    80009178:	00e78023          	sb	a4,0(a5)
    8000917c:	fa5ff06f          	j	80009120 <uartinterrupt+0x24>
    80009180:	00000013          	nop
    80009184:	00000013          	nop
    80009188:	01813083          	ld	ra,24(sp)
    8000918c:	01013403          	ld	s0,16(sp)
    80009190:	02010113          	addi	sp,sp,32
    80009194:	00008067          	ret

0000000080009198 <getCmd>:
    80009198:	ff010113          	addi	sp,sp,-16
    8000919c:	00813423          	sd	s0,8(sp)
    800091a0:	01010413          	addi	s0,sp,16
    800091a4:	0081f797          	auipc	a5,0x81f
    800091a8:	02c78793          	addi	a5,a5,44 # 808281d0 <cmd>
    800091ac:	00078513          	mv	a0,a5
    800091b0:	00813403          	ld	s0,8(sp)
    800091b4:	01010113          	addi	sp,sp,16
    800091b8:	00008067          	ret

00000000800091bc <getShellResult>:
    800091bc:	ff010113          	addi	sp,sp,-16
    800091c0:	00813423          	sd	s0,8(sp)
    800091c4:	01010413          	addi	s0,sp,16
    800091c8:	00003797          	auipc	a5,0x3
    800091cc:	e4078793          	addi	a5,a5,-448 # 8000c008 <shellProcessored>
    800091d0:	0007a783          	lw	a5,0(a5)
    800091d4:	0007879b          	sext.w	a5,a5
    800091d8:	00078513          	mv	a0,a5
    800091dc:	00813403          	ld	s0,8(sp)
    800091e0:	01010113          	addi	sp,sp,16
    800091e4:	00008067          	ret

00000000800091e8 <r_stval>:
    800091e8:	fe010113          	addi	sp,sp,-32
    800091ec:	00813c23          	sd	s0,24(sp)
    800091f0:	02010413          	addi	s0,sp,32
    800091f4:	143027f3          	csrr	a5,stval
    800091f8:	fef43423          	sd	a5,-24(s0)
    800091fc:	fe843783          	ld	a5,-24(s0)
    80009200:	00078513          	mv	a0,a5
    80009204:	01813403          	ld	s0,24(sp)
    80009208:	02010113          	addi	sp,sp,32
    8000920c:	00008067          	ret

0000000080009210 <r_sstatus>:
    80009210:	fe010113          	addi	sp,sp,-32
    80009214:	00813c23          	sd	s0,24(sp)
    80009218:	02010413          	addi	s0,sp,32
    8000921c:	100027f3          	csrr	a5,sstatus
    80009220:	fef43423          	sd	a5,-24(s0)
    80009224:	fe843783          	ld	a5,-24(s0)
    80009228:	00078513          	mv	a0,a5
    8000922c:	01813403          	ld	s0,24(sp)
    80009230:	02010113          	addi	sp,sp,32
    80009234:	00008067          	ret

0000000080009238 <w_sstatus>:
    80009238:	fe010113          	addi	sp,sp,-32
    8000923c:	00813c23          	sd	s0,24(sp)
    80009240:	02010413          	addi	s0,sp,32
    80009244:	fea43423          	sd	a0,-24(s0)
    80009248:	fe843783          	ld	a5,-24(s0)
    8000924c:	10079073          	csrw	sstatus,a5
    80009250:	00000013          	nop
    80009254:	01813403          	ld	s0,24(sp)
    80009258:	02010113          	addi	sp,sp,32
    8000925c:	00008067          	ret

0000000080009260 <w_sepc>:
    80009260:	fe010113          	addi	sp,sp,-32
    80009264:	00813c23          	sd	s0,24(sp)
    80009268:	02010413          	addi	s0,sp,32
    8000926c:	fea43423          	sd	a0,-24(s0)
    80009270:	fe843783          	ld	a5,-24(s0)
    80009274:	14179073          	csrw	sepc,a5
    80009278:	00000013          	nop
    8000927c:	01813403          	ld	s0,24(sp)
    80009280:	02010113          	addi	sp,sp,32
    80009284:	00008067          	ret

0000000080009288 <r_sepc>:
    80009288:	fe010113          	addi	sp,sp,-32
    8000928c:	00813c23          	sd	s0,24(sp)
    80009290:	02010413          	addi	s0,sp,32
    80009294:	141027f3          	csrr	a5,sepc
    80009298:	fef43423          	sd	a5,-24(s0)
    8000929c:	fe843783          	ld	a5,-24(s0)
    800092a0:	00078513          	mv	a0,a5
    800092a4:	01813403          	ld	s0,24(sp)
    800092a8:	02010113          	addi	sp,sp,32
    800092ac:	00008067          	ret

00000000800092b0 <r_scause>:
    800092b0:	fe010113          	addi	sp,sp,-32
    800092b4:	00813c23          	sd	s0,24(sp)
    800092b8:	02010413          	addi	s0,sp,32
    800092bc:	142027f3          	csrr	a5,scause
    800092c0:	fef43423          	sd	a5,-24(s0)
    800092c4:	fe843783          	ld	a5,-24(s0)
    800092c8:	00078513          	mv	a0,a5
    800092cc:	01813403          	ld	s0,24(sp)
    800092d0:	02010113          	addi	sp,sp,32
    800092d4:	00008067          	ret

00000000800092d8 <r_sip>:
    800092d8:	fe010113          	addi	sp,sp,-32
    800092dc:	00813c23          	sd	s0,24(sp)
    800092e0:	02010413          	addi	s0,sp,32
    800092e4:	144027f3          	csrr	a5,sip
    800092e8:	fef43423          	sd	a5,-24(s0)
    800092ec:	fe843783          	ld	a5,-24(s0)
    800092f0:	00078513          	mv	a0,a5
    800092f4:	01813403          	ld	s0,24(sp)
    800092f8:	02010113          	addi	sp,sp,32
    800092fc:	00008067          	ret

0000000080009300 <w_sip>:
    80009300:	fe010113          	addi	sp,sp,-32
    80009304:	00813c23          	sd	s0,24(sp)
    80009308:	02010413          	addi	s0,sp,32
    8000930c:	fea43423          	sd	a0,-24(s0)
    80009310:	fe843783          	ld	a5,-24(s0)
    80009314:	14479073          	csrw	sip,a5
    80009318:	00000013          	nop
    8000931c:	01813403          	ld	s0,24(sp)
    80009320:	02010113          	addi	sp,sp,32
    80009324:	00008067          	ret

0000000080009328 <w_stvec>:
    80009328:	fe010113          	addi	sp,sp,-32
    8000932c:	00813c23          	sd	s0,24(sp)
    80009330:	02010413          	addi	s0,sp,32
    80009334:	fea43423          	sd	a0,-24(s0)
    80009338:	fe843783          	ld	a5,-24(s0)
    8000933c:	10579073          	csrw	stvec,a5
    80009340:	00000013          	nop
    80009344:	01813403          	ld	s0,24(sp)
    80009348:	02010113          	addi	sp,sp,32
    8000934c:	00008067          	ret

0000000080009350 <usertrap>:
    80009350:	ff010113          	addi	sp,sp,-16
    80009354:	00813423          	sd	s0,8(sp)
    80009358:	01010413          	addi	s0,sp,16
    8000935c:	00000013          	nop
    80009360:	00813403          	ld	s0,8(sp)
    80009364:	01010113          	addi	sp,sp,16
    80009368:	00008067          	ret

000000008000936c <kerneltrap>:
    8000936c:	fb010113          	addi	sp,sp,-80
    80009370:	04113423          	sd	ra,72(sp)
    80009374:	04813023          	sd	s0,64(sp)
    80009378:	02913c23          	sd	s1,56(sp)
    8000937c:	05010413          	addi	s0,sp,80
    80009380:	00000097          	auipc	ra,0x0
    80009384:	e90080e7          	jalr	-368(ra) # 80009210 <r_sstatus>
    80009388:	fca43c23          	sd	a0,-40(s0)
    8000938c:	00000097          	auipc	ra,0x0
    80009390:	f24080e7          	jalr	-220(ra) # 800092b0 <r_scause>
    80009394:	fca43823          	sd	a0,-48(s0)
    80009398:	00000097          	auipc	ra,0x0
    8000939c:	ef0080e7          	jalr	-272(ra) # 80009288 <r_sepc>
    800093a0:	fca43423          	sd	a0,-56(s0)
    800093a4:	fd843783          	ld	a5,-40(s0)
    800093a8:	1007f793          	andi	a5,a5,256
    800093ac:	00079c63          	bnez	a5,800093c4 <kerneltrap+0x58>
    800093b0:	00001517          	auipc	a0,0x1
    800093b4:	37050513          	addi	a0,a0,880 # 8000a720 <memset+0x190>
    800093b8:	fffff097          	auipc	ra,0xfffff
    800093bc:	7d8080e7          	jalr	2008(ra) # 80008b90 <println>
    800093c0:	1cc0006f          	j	8000958c <kerneltrap+0x220>
    800093c4:	00000097          	auipc	ra,0x0
    800093c8:	e4c080e7          	jalr	-436(ra) # 80009210 <r_sstatus>
    800093cc:	00050793          	mv	a5,a0
    800093d0:	0027f793          	andi	a5,a5,2
    800093d4:	00078c63          	beqz	a5,800093ec <kerneltrap+0x80>
    800093d8:	00001517          	auipc	a0,0x1
    800093dc:	37050513          	addi	a0,a0,880 # 8000a748 <memset+0x1b8>
    800093e0:	fffff097          	auipc	ra,0xfffff
    800093e4:	7b0080e7          	jalr	1968(ra) # 80008b90 <println>
    800093e8:	1a40006f          	j	8000958c <kerneltrap+0x220>
    800093ec:	fd043783          	ld	a5,-48(s0)
    800093f0:	0807d463          	bgez	a5,80009478 <kerneltrap+0x10c>
    800093f4:	fd043783          	ld	a5,-48(s0)
    800093f8:	0ff7f713          	andi	a4,a5,255
    800093fc:	00900793          	li	a5,9
    80009400:	06f71c63          	bne	a4,a5,80009478 <kerneltrap+0x10c>
    80009404:	00000097          	auipc	ra,0x0
    80009408:	37c080e7          	jalr	892(ra) # 80009780 <plic_claim>
    8000940c:	00050793          	mv	a5,a0
    80009410:	fcf42223          	sw	a5,-60(s0)
    80009414:	fc442783          	lw	a5,-60(s0)
    80009418:	0007871b          	sext.w	a4,a5
    8000941c:	00a00793          	li	a5,10
    80009420:	00f71863          	bne	a4,a5,80009430 <kerneltrap+0xc4>
    80009424:	00000097          	auipc	ra,0x0
    80009428:	cd8080e7          	jalr	-808(ra) # 800090fc <uartinterrupt>
    8000942c:	02c0006f          	j	80009458 <kerneltrap+0xec>
    80009430:	fc442783          	lw	a5,-60(s0)
    80009434:	0007871b          	sext.w	a4,a5
    80009438:	00100793          	li	a5,1
    8000943c:	00f70e63          	beq	a4,a5,80009458 <kerneltrap+0xec>
    80009440:	fc442783          	lw	a5,-60(s0)
    80009444:	00078593          	mv	a1,a5
    80009448:	00001517          	auipc	a0,0x1
    8000944c:	33850513          	addi	a0,a0,824 # 8000a780 <memset+0x1f0>
    80009450:	fffff097          	auipc	ra,0xfffff
    80009454:	544080e7          	jalr	1348(ra) # 80008994 <printf>
    80009458:	fc442783          	lw	a5,-60(s0)
    8000945c:	0007879b          	sext.w	a5,a5
    80009460:	10078463          	beqz	a5,80009568 <kerneltrap+0x1fc>
    80009464:	fc442783          	lw	a5,-60(s0)
    80009468:	00078513          	mv	a0,a5
    8000946c:	00000097          	auipc	ra,0x0
    80009470:	364080e7          	jalr	868(ra) # 800097d0 <complate_irq>
    80009474:	0f40006f          	j	80009568 <kerneltrap+0x1fc>
    80009478:	fd043703          	ld	a4,-48(s0)
    8000947c:	fff00793          	li	a5,-1
    80009480:	03f79793          	slli	a5,a5,0x3f
    80009484:	00178793          	addi	a5,a5,1
    80009488:	0af71663          	bne	a4,a5,80009534 <kerneltrap+0x1c8>
    8000948c:	00000097          	auipc	ra,0x0
    80009490:	e4c080e7          	jalr	-436(ra) # 800092d8 <r_sip>
    80009494:	00050793          	mv	a5,a0
    80009498:	ffd7f793          	andi	a5,a5,-3
    8000949c:	00078513          	mv	a0,a5
    800094a0:	00000097          	auipc	ra,0x0
    800094a4:	e60080e7          	jalr	-416(ra) # 80009300 <w_sip>
    800094a8:	0081f797          	auipc	a5,0x81f
    800094ac:	dc078793          	addi	a5,a5,-576 # 80828268 <timer_processed_count>
    800094b0:	0007a783          	lw	a5,0(a5)
    800094b4:	0007879b          	sext.w	a5,a5
    800094b8:	0017879b          	addiw	a5,a5,1
    800094bc:	0007871b          	sext.w	a4,a5
    800094c0:	0081f797          	auipc	a5,0x81f
    800094c4:	da878793          	addi	a5,a5,-600 # 80828268 <timer_processed_count>
    800094c8:	00e7a023          	sw	a4,0(a5)
    800094cc:	00000097          	auipc	ra,0x0
    800094d0:	828080e7          	jalr	-2008(ra) # 80008cf4 <get_tasks>
    800094d4:	00050793          	mv	a5,a0
    800094d8:	fcf42023          	sw	a5,-64(s0)
    800094dc:	fc042783          	lw	a5,-64(s0)
    800094e0:	0007879b          	sext.w	a5,a5
    800094e4:	0a078263          	beqz	a5,80009588 <kerneltrap+0x21c>
    800094e8:	0081f797          	auipc	a5,0x81f
    800094ec:	d8078793          	addi	a5,a5,-640 # 80828268 <timer_processed_count>
    800094f0:	0007a783          	lw	a5,0(a5)
    800094f4:	0007879b          	sext.w	a5,a5
    800094f8:	00078713          	mv	a4,a5
    800094fc:	fc042783          	lw	a5,-64(s0)
    80009500:	02f767bb          	remw	a5,a4,a5
    80009504:	faf42e23          	sw	a5,-68(s0)
    80009508:	fbc42783          	lw	a5,-68(s0)
    8000950c:	00078593          	mv	a1,a5
    80009510:	00001517          	auipc	a0,0x1
    80009514:	29050513          	addi	a0,a0,656 # 8000a7a0 <memset+0x210>
    80009518:	fffff097          	auipc	ra,0xfffff
    8000951c:	47c080e7          	jalr	1148(ra) # 80008994 <printf>
    80009520:	fbc42783          	lw	a5,-68(s0)
    80009524:	00078513          	mv	a0,a5
    80009528:	fffff097          	auipc	ra,0xfffff
    8000952c:	720080e7          	jalr	1824(ra) # 80008c48 <run_target_task_num>
    80009530:	03c0006f          	j	8000956c <kerneltrap+0x200>
    80009534:	00000097          	auipc	ra,0x0
    80009538:	d54080e7          	jalr	-684(ra) # 80009288 <r_sepc>
    8000953c:	00050493          	mv	s1,a0
    80009540:	00000097          	auipc	ra,0x0
    80009544:	ca8080e7          	jalr	-856(ra) # 800091e8 <r_stval>
    80009548:	00050793          	mv	a5,a0
    8000954c:	00078613          	mv	a2,a5
    80009550:	00048593          	mv	a1,s1
    80009554:	00001517          	auipc	a0,0x1
    80009558:	26450513          	addi	a0,a0,612 # 8000a7b8 <memset+0x228>
    8000955c:	fffff097          	auipc	ra,0xfffff
    80009560:	438080e7          	jalr	1080(ra) # 80008994 <printf>
    80009564:	0080006f          	j	8000956c <kerneltrap+0x200>
    80009568:	00000013          	nop
    8000956c:	fc843503          	ld	a0,-56(s0)
    80009570:	00000097          	auipc	ra,0x0
    80009574:	cf0080e7          	jalr	-784(ra) # 80009260 <w_sepc>
    80009578:	fd843503          	ld	a0,-40(s0)
    8000957c:	00000097          	auipc	ra,0x0
    80009580:	cbc080e7          	jalr	-836(ra) # 80009238 <w_sstatus>
    80009584:	0080006f          	j	8000958c <kerneltrap+0x220>
    80009588:	00000013          	nop
    8000958c:	04813083          	ld	ra,72(sp)
    80009590:	04013403          	ld	s0,64(sp)
    80009594:	03813483          	ld	s1,56(sp)
    80009598:	05010113          	addi	sp,sp,80
    8000959c:	00008067          	ret

00000000800095a0 <trapinit>:
    800095a0:	ff010113          	addi	sp,sp,-16
    800095a4:	00113423          	sd	ra,8(sp)
    800095a8:	00813023          	sd	s0,0(sp)
    800095ac:	01010413          	addi	s0,sp,16
    800095b0:	fffff797          	auipc	a5,0xfffff
    800095b4:	fc078793          	addi	a5,a5,-64 # 80008570 <kernelvec>
    800095b8:	00078513          	mv	a0,a5
    800095bc:	00000097          	auipc	ra,0x0
    800095c0:	d6c080e7          	jalr	-660(ra) # 80009328 <w_stvec>
    800095c4:	00000013          	nop
    800095c8:	00813083          	ld	ra,8(sp)
    800095cc:	00013403          	ld	s0,0(sp)
    800095d0:	01010113          	addi	sp,sp,16
    800095d4:	00008067          	ret

00000000800095d8 <initlock>:
    800095d8:	fe010113          	addi	sp,sp,-32
    800095dc:	00813c23          	sd	s0,24(sp)
    800095e0:	02010413          	addi	s0,sp,32
    800095e4:	fea43423          	sd	a0,-24(s0)
    800095e8:	feb43023          	sd	a1,-32(s0)
    800095ec:	fe843783          	ld	a5,-24(s0)
    800095f0:	fe043703          	ld	a4,-32(s0)
    800095f4:	00e7b423          	sd	a4,8(a5)
    800095f8:	fe843783          	ld	a5,-24(s0)
    800095fc:	0007a023          	sw	zero,0(a5)
    80009600:	00000013          	nop
    80009604:	01813403          	ld	s0,24(sp)
    80009608:	02010113          	addi	sp,sp,32
    8000960c:	00008067          	ret

0000000080009610 <lock>:
    80009610:	fe010113          	addi	sp,sp,-32
    80009614:	00113c23          	sd	ra,24(sp)
    80009618:	00813823          	sd	s0,16(sp)
    8000961c:	02010413          	addi	s0,sp,32
    80009620:	fea43423          	sd	a0,-24(s0)
    80009624:	00000013          	nop
    80009628:	fe843783          	ld	a5,-24(s0)
    8000962c:	00078513          	mv	a0,a5
    80009630:	00000097          	auipc	ra,0x0
    80009634:	068080e7          	jalr	104(ra) # 80009698 <atmswap>
    80009638:	00050793          	mv	a5,a0
    8000963c:	fe0796e3          	bnez	a5,80009628 <lock+0x18>
    80009640:	fe843783          	ld	a5,-24(s0)
    80009644:	0007a783          	lw	a5,0(a5)
    80009648:	00078593          	mv	a1,a5
    8000964c:	00001517          	auipc	a0,0x1
    80009650:	18450513          	addi	a0,a0,388 # 8000a7d0 <memset+0x240>
    80009654:	fffff097          	auipc	ra,0xfffff
    80009658:	340080e7          	jalr	832(ra) # 80008994 <printf>
    8000965c:	00000013          	nop
    80009660:	01813083          	ld	ra,24(sp)
    80009664:	01013403          	ld	s0,16(sp)
    80009668:	02010113          	addi	sp,sp,32
    8000966c:	00008067          	ret

0000000080009670 <unlock>:
    80009670:	fe010113          	addi	sp,sp,-32
    80009674:	00813c23          	sd	s0,24(sp)
    80009678:	02010413          	addi	s0,sp,32
    8000967c:	fea43423          	sd	a0,-24(s0)
    80009680:	fe843783          	ld	a5,-24(s0)
    80009684:	0007a023          	sw	zero,0(a5)
    80009688:	00000013          	nop
    8000968c:	01813403          	ld	s0,24(sp)
    80009690:	02010113          	addi	sp,sp,32
    80009694:	00008067          	ret

0000000080009698 <atmswap>:
    80009698:	4285                	li	t0,1
    8000969a:	0c55232f          	amoswap.w.aq	t1,t0,(a0)
    8000969e:	851a                	mv	a0,t1
    800096a0:	8082                	ret
	...

00000000800096a4 <r_tp>:
    800096a4:	fe010113          	addi	sp,sp,-32
    800096a8:	00813c23          	sd	s0,24(sp)
    800096ac:	02010413          	addi	s0,sp,32
    800096b0:	00020793          	mv	a5,tp
    800096b4:	fef43423          	sd	a5,-24(s0)
    800096b8:	fe843783          	ld	a5,-24(s0)
    800096bc:	00078513          	mv	a0,a5
    800096c0:	01813403          	ld	s0,24(sp)
    800096c4:	02010113          	addi	sp,sp,32
    800096c8:	00008067          	ret

00000000800096cc <plicinit>:
    800096cc:	ff010113          	addi	sp,sp,-16
    800096d0:	00813423          	sd	s0,8(sp)
    800096d4:	01010413          	addi	s0,sp,16
    800096d8:	0c0007b7          	lui	a5,0xc000
    800096dc:	02878793          	addi	a5,a5,40 # c000028 <STACK_SIZE+0xbffe028>
    800096e0:	00100713          	li	a4,1
    800096e4:	00e7a023          	sw	a4,0(a5)
    800096e8:	0c0007b7          	lui	a5,0xc000
    800096ec:	00478793          	addi	a5,a5,4 # c000004 <STACK_SIZE+0xbffe004>
    800096f0:	00100713          	li	a4,1
    800096f4:	00e7a023          	sw	a4,0(a5)
    800096f8:	00000013          	nop
    800096fc:	00813403          	ld	s0,8(sp)
    80009700:	01010113          	addi	sp,sp,16
    80009704:	00008067          	ret

0000000080009708 <plicinithart>:
    80009708:	fe010113          	addi	sp,sp,-32
    8000970c:	00113c23          	sd	ra,24(sp)
    80009710:	00813823          	sd	s0,16(sp)
    80009714:	02010413          	addi	s0,sp,32
    80009718:	00000097          	auipc	ra,0x0
    8000971c:	f8c080e7          	jalr	-116(ra) # 800096a4 <r_tp>
    80009720:	00050793          	mv	a5,a0
    80009724:	fef42623          	sw	a5,-20(s0)
    80009728:	fec42783          	lw	a5,-20(s0)
    8000972c:	0087979b          	slliw	a5,a5,0x8
    80009730:	0007879b          	sext.w	a5,a5
    80009734:	00078713          	mv	a4,a5
    80009738:	0c0027b7          	lui	a5,0xc002
    8000973c:	08078793          	addi	a5,a5,128 # c002080 <STACK_SIZE+0xc000080>
    80009740:	00f707b3          	add	a5,a4,a5
    80009744:	00078713          	mv	a4,a5
    80009748:	40200793          	li	a5,1026
    8000974c:	00f72023          	sw	a5,0(a4)
    80009750:	fec42783          	lw	a5,-20(s0)
    80009754:	00d7979b          	slliw	a5,a5,0xd
    80009758:	0007879b          	sext.w	a5,a5
    8000975c:	00078713          	mv	a4,a5
    80009760:	0c2017b7          	lui	a5,0xc201
    80009764:	00f707b3          	add	a5,a4,a5
    80009768:	0007a023          	sw	zero,0(a5) # c201000 <STACK_SIZE+0xc1ff000>
    8000976c:	00000013          	nop
    80009770:	01813083          	ld	ra,24(sp)
    80009774:	01013403          	ld	s0,16(sp)
    80009778:	02010113          	addi	sp,sp,32
    8000977c:	00008067          	ret

0000000080009780 <plic_claim>:
    80009780:	fe010113          	addi	sp,sp,-32
    80009784:	00113c23          	sd	ra,24(sp)
    80009788:	00813823          	sd	s0,16(sp)
    8000978c:	02010413          	addi	s0,sp,32
    80009790:	00000097          	auipc	ra,0x0
    80009794:	f14080e7          	jalr	-236(ra) # 800096a4 <r_tp>
    80009798:	fea43423          	sd	a0,-24(s0)
    8000979c:	fe843783          	ld	a5,-24(s0)
    800097a0:	00d79713          	slli	a4,a5,0xd
    800097a4:	0c2017b7          	lui	a5,0xc201
    800097a8:	00478793          	addi	a5,a5,4 # c201004 <STACK_SIZE+0xc1ff004>
    800097ac:	00f707b3          	add	a5,a4,a5
    800097b0:	0007a783          	lw	a5,0(a5)
    800097b4:	fef42223          	sw	a5,-28(s0)
    800097b8:	fe442783          	lw	a5,-28(s0)
    800097bc:	00078513          	mv	a0,a5
    800097c0:	01813083          	ld	ra,24(sp)
    800097c4:	01013403          	ld	s0,16(sp)
    800097c8:	02010113          	addi	sp,sp,32
    800097cc:	00008067          	ret

00000000800097d0 <complate_irq>:
    800097d0:	fd010113          	addi	sp,sp,-48
    800097d4:	02113423          	sd	ra,40(sp)
    800097d8:	02813023          	sd	s0,32(sp)
    800097dc:	03010413          	addi	s0,sp,48
    800097e0:	00050793          	mv	a5,a0
    800097e4:	fcf42e23          	sw	a5,-36(s0)
    800097e8:	00000097          	auipc	ra,0x0
    800097ec:	ebc080e7          	jalr	-324(ra) # 800096a4 <r_tp>
    800097f0:	fea43423          	sd	a0,-24(s0)
    800097f4:	fe843783          	ld	a5,-24(s0)
    800097f8:	00d79713          	slli	a4,a5,0xd
    800097fc:	0c2017b7          	lui	a5,0xc201
    80009800:	00478793          	addi	a5,a5,4 # c201004 <STACK_SIZE+0xc1ff004>
    80009804:	00f707b3          	add	a5,a4,a5
    80009808:	00078713          	mv	a4,a5
    8000980c:	fdc42783          	lw	a5,-36(s0)
    80009810:	00f72023          	sw	a5,0(a4)
    80009814:	00000013          	nop
    80009818:	02813083          	ld	ra,40(sp)
    8000981c:	02013403          	ld	s0,32(sp)
    80009820:	03010113          	addi	sp,sp,48
    80009824:	00008067          	ret

0000000080009828 <virtio_tester>:
    80009828:	fd010113          	addi	sp,sp,-48
    8000982c:	02113423          	sd	ra,40(sp)
    80009830:	02813023          	sd	s0,32(sp)
    80009834:	03010413          	addi	s0,sp,48
    80009838:	00050793          	mv	a5,a0
    8000983c:	fcf42e23          	sw	a5,-36(s0)
    80009840:	0081f797          	auipc	a5,0x81f
    80009844:	7c078793          	addi	a5,a5,1984 # 80829000 <b>
    80009848:	0007a783          	lw	a5,0(a5)
    8000984c:	08079263          	bnez	a5,800098d0 <virtio_tester+0xa8>
    80009850:	00001517          	auipc	a0,0x1
    80009854:	f9050513          	addi	a0,a0,-112 # 8000a7e0 <memset+0x250>
    80009858:	fffff097          	auipc	ra,0xfffff
    8000985c:	338080e7          	jalr	824(ra) # 80008b90 <println>
    80009860:	0081f797          	auipc	a5,0x81f
    80009864:	7a078793          	addi	a5,a5,1952 # 80829000 <b>
    80009868:	00100713          	li	a4,1
    8000986c:	00e7a023          	sw	a4,0(a5)
    80009870:	0081f797          	auipc	a5,0x81f
    80009874:	79078793          	addi	a5,a5,1936 # 80829000 <b>
    80009878:	00100713          	li	a4,1
    8000987c:	00e7a223          	sw	a4,4(a5)
    80009880:	fe042623          	sw	zero,-20(s0)
    80009884:	0240006f          	j	800098a8 <virtio_tester+0x80>
    80009888:	0081f717          	auipc	a4,0x81f
    8000988c:	77870713          	addi	a4,a4,1912 # 80829000 <b>
    80009890:	fec42783          	lw	a5,-20(s0)
    80009894:	00f707b3          	add	a5,a4,a5
    80009898:	00078e23          	sb	zero,28(a5)
    8000989c:	fec42783          	lw	a5,-20(s0)
    800098a0:	0017879b          	addiw	a5,a5,1
    800098a4:	fef42623          	sw	a5,-20(s0)
    800098a8:	fec42783          	lw	a5,-20(s0)
    800098ac:	0007871b          	sext.w	a4,a5
    800098b0:	3ff00793          	li	a5,1023
    800098b4:	fce7dae3          	bge	a5,a4,80009888 <virtio_tester+0x60>
    800098b8:	00001597          	auipc	a1,0x1
    800098bc:	f3858593          	addi	a1,a1,-200 # 8000a7f0 <memset+0x260>
    800098c0:	0081f517          	auipc	a0,0x81f
    800098c4:	74850513          	addi	a0,a0,1864 # 80829008 <b+0x8>
    800098c8:	00000097          	auipc	ra,0x0
    800098cc:	d10080e7          	jalr	-752(ra) # 800095d8 <initlock>
    800098d0:	00001517          	auipc	a0,0x1
    800098d4:	f2850513          	addi	a0,a0,-216 # 8000a7f8 <memset+0x268>
    800098d8:	fffff097          	auipc	ra,0xfffff
    800098dc:	2b8080e7          	jalr	696(ra) # 80008b90 <println>
    800098e0:	fdc42783          	lw	a5,-36(s0)
    800098e4:	00078593          	mv	a1,a5
    800098e8:	0081f517          	auipc	a0,0x81f
    800098ec:	71850513          	addi	a0,a0,1816 # 80829000 <b>
    800098f0:	00000097          	auipc	ra,0x0
    800098f4:	360080e7          	jalr	864(ra) # 80009c50 <virt_disk_rw>
    800098f8:	00000013          	nop
    800098fc:	02813083          	ld	ra,40(sp)
    80009900:	02013403          	ld	s0,32(sp)
    80009904:	03010113          	addi	sp,sp,48
    80009908:	00008067          	ret

000000008000990c <alloc_desc>:
    8000990c:	fe010113          	addi	sp,sp,-32
    80009910:	00813c23          	sd	s0,24(sp)
    80009914:	02010413          	addi	s0,sp,32
    80009918:	fe042623          	sw	zero,-20(s0)
    8000991c:	0540006f          	j	80009970 <alloc_desc+0x64>
    80009920:	00820717          	auipc	a4,0x820
    80009924:	6e070713          	addi	a4,a4,1760 # 8082a000 <disk>
    80009928:	fec42783          	lw	a5,-20(s0)
    8000992c:	00f707b3          	add	a5,a4,a5
    80009930:	00002737          	lui	a4,0x2
    80009934:	00f707b3          	add	a5,a4,a5
    80009938:	0187c783          	lbu	a5,24(a5)
    8000993c:	02078463          	beqz	a5,80009964 <alloc_desc+0x58>
    80009940:	00820717          	auipc	a4,0x820
    80009944:	6c070713          	addi	a4,a4,1728 # 8082a000 <disk>
    80009948:	fec42783          	lw	a5,-20(s0)
    8000994c:	00f707b3          	add	a5,a4,a5
    80009950:	00002737          	lui	a4,0x2
    80009954:	00f707b3          	add	a5,a4,a5
    80009958:	00078c23          	sb	zero,24(a5)
    8000995c:	fec42783          	lw	a5,-20(s0)
    80009960:	0240006f          	j	80009984 <alloc_desc+0x78>
    80009964:	fec42783          	lw	a5,-20(s0)
    80009968:	0017879b          	addiw	a5,a5,1
    8000996c:	fef42623          	sw	a5,-20(s0)
    80009970:	fec42783          	lw	a5,-20(s0)
    80009974:	0007871b          	sext.w	a4,a5
    80009978:	00700793          	li	a5,7
    8000997c:	fae7d2e3          	bge	a5,a4,80009920 <alloc_desc+0x14>
    80009980:	fff00793          	li	a5,-1
    80009984:	00078513          	mv	a0,a5
    80009988:	01813403          	ld	s0,24(sp)
    8000998c:	02010113          	addi	sp,sp,32
    80009990:	00008067          	ret

0000000080009994 <free_desc>:
    80009994:	fe010113          	addi	sp,sp,-32
    80009998:	00113c23          	sd	ra,24(sp)
    8000999c:	00813823          	sd	s0,16(sp)
    800099a0:	02010413          	addi	s0,sp,32
    800099a4:	00050793          	mv	a5,a0
    800099a8:	fef42623          	sw	a5,-20(s0)
    800099ac:	fec42783          	lw	a5,-20(s0)
    800099b0:	0007871b          	sext.w	a4,a5
    800099b4:	00700793          	li	a5,7
    800099b8:	00e7dc63          	bge	a5,a4,800099d0 <free_desc+0x3c>
    800099bc:	00001517          	auipc	a0,0x1
    800099c0:	e4c50513          	addi	a0,a0,-436 # 8000a808 <memset+0x278>
    800099c4:	fffff097          	auipc	ra,0xfffff
    800099c8:	1cc080e7          	jalr	460(ra) # 80008b90 <println>
    800099cc:	0e80006f          	j	80009ab4 <free_desc+0x120>
    800099d0:	00820717          	auipc	a4,0x820
    800099d4:	63070713          	addi	a4,a4,1584 # 8082a000 <disk>
    800099d8:	fec42783          	lw	a5,-20(s0)
    800099dc:	00f707b3          	add	a5,a4,a5
    800099e0:	00002737          	lui	a4,0x2
    800099e4:	00f707b3          	add	a5,a4,a5
    800099e8:	0187c783          	lbu	a5,24(a5)
    800099ec:	00078c63          	beqz	a5,80009a04 <free_desc+0x70>
    800099f0:	00001517          	auipc	a0,0x1
    800099f4:	e2850513          	addi	a0,a0,-472 # 8000a818 <memset+0x288>
    800099f8:	fffff097          	auipc	ra,0xfffff
    800099fc:	198080e7          	jalr	408(ra) # 80008b90 <println>
    80009a00:	0b40006f          	j	80009ab4 <free_desc+0x120>
    80009a04:	00820717          	auipc	a4,0x820
    80009a08:	5fc70713          	addi	a4,a4,1532 # 8082a000 <disk>
    80009a0c:	000027b7          	lui	a5,0x2
    80009a10:	00f707b3          	add	a5,a4,a5
    80009a14:	0007b703          	ld	a4,0(a5) # 2000 <STACK_SIZE>
    80009a18:	fec42783          	lw	a5,-20(s0)
    80009a1c:	00479793          	slli	a5,a5,0x4
    80009a20:	00f707b3          	add	a5,a4,a5
    80009a24:	0007b023          	sd	zero,0(a5)
    80009a28:	00820717          	auipc	a4,0x820
    80009a2c:	5d870713          	addi	a4,a4,1496 # 8082a000 <disk>
    80009a30:	000027b7          	lui	a5,0x2
    80009a34:	00f707b3          	add	a5,a4,a5
    80009a38:	0007b703          	ld	a4,0(a5) # 2000 <STACK_SIZE>
    80009a3c:	fec42783          	lw	a5,-20(s0)
    80009a40:	00479793          	slli	a5,a5,0x4
    80009a44:	00f707b3          	add	a5,a4,a5
    80009a48:	0007a423          	sw	zero,8(a5)
    80009a4c:	00820717          	auipc	a4,0x820
    80009a50:	5b470713          	addi	a4,a4,1460 # 8082a000 <disk>
    80009a54:	000027b7          	lui	a5,0x2
    80009a58:	00f707b3          	add	a5,a4,a5
    80009a5c:	0007b703          	ld	a4,0(a5) # 2000 <STACK_SIZE>
    80009a60:	fec42783          	lw	a5,-20(s0)
    80009a64:	00479793          	slli	a5,a5,0x4
    80009a68:	00f707b3          	add	a5,a4,a5
    80009a6c:	00079623          	sh	zero,12(a5)
    80009a70:	00820717          	auipc	a4,0x820
    80009a74:	59070713          	addi	a4,a4,1424 # 8082a000 <disk>
    80009a78:	000027b7          	lui	a5,0x2
    80009a7c:	00f707b3          	add	a5,a4,a5
    80009a80:	0007b703          	ld	a4,0(a5) # 2000 <STACK_SIZE>
    80009a84:	fec42783          	lw	a5,-20(s0)
    80009a88:	00479793          	slli	a5,a5,0x4
    80009a8c:	00f707b3          	add	a5,a4,a5
    80009a90:	00079723          	sh	zero,14(a5)
    80009a94:	00820717          	auipc	a4,0x820
    80009a98:	56c70713          	addi	a4,a4,1388 # 8082a000 <disk>
    80009a9c:	fec42783          	lw	a5,-20(s0)
    80009aa0:	00f707b3          	add	a5,a4,a5
    80009aa4:	00002737          	lui	a4,0x2
    80009aa8:	00f707b3          	add	a5,a4,a5
    80009aac:	00100713          	li	a4,1
    80009ab0:	00e78c23          	sb	a4,24(a5)
    80009ab4:	01813083          	ld	ra,24(sp)
    80009ab8:	01013403          	ld	s0,16(sp)
    80009abc:	02010113          	addi	sp,sp,32
    80009ac0:	00008067          	ret

0000000080009ac4 <alloc3_desc>:
    80009ac4:	fc010113          	addi	sp,sp,-64
    80009ac8:	02113c23          	sd	ra,56(sp)
    80009acc:	02813823          	sd	s0,48(sp)
    80009ad0:	02913423          	sd	s1,40(sp)
    80009ad4:	04010413          	addi	s0,sp,64
    80009ad8:	fca43423          	sd	a0,-56(s0)
    80009adc:	fc042e23          	sw	zero,-36(s0)
    80009ae0:	0980006f          	j	80009b78 <alloc3_desc+0xb4>
    80009ae4:	fdc42783          	lw	a5,-36(s0)
    80009ae8:	00279793          	slli	a5,a5,0x2
    80009aec:	fc843703          	ld	a4,-56(s0)
    80009af0:	00f704b3          	add	s1,a4,a5
    80009af4:	00000097          	auipc	ra,0x0
    80009af8:	e18080e7          	jalr	-488(ra) # 8000990c <alloc_desc>
    80009afc:	00050793          	mv	a5,a0
    80009b00:	00f4a023          	sw	a5,0(s1)
    80009b04:	fdc42783          	lw	a5,-36(s0)
    80009b08:	00279793          	slli	a5,a5,0x2
    80009b0c:	fc843703          	ld	a4,-56(s0)
    80009b10:	00f707b3          	add	a5,a4,a5
    80009b14:	0007a783          	lw	a5,0(a5)
    80009b18:	0407da63          	bgez	a5,80009b6c <alloc3_desc+0xa8>
    80009b1c:	fc042c23          	sw	zero,-40(s0)
    80009b20:	0300006f          	j	80009b50 <alloc3_desc+0x8c>
    80009b24:	fd842783          	lw	a5,-40(s0)
    80009b28:	00279793          	slli	a5,a5,0x2
    80009b2c:	fc843703          	ld	a4,-56(s0)
    80009b30:	00f707b3          	add	a5,a4,a5
    80009b34:	0007a783          	lw	a5,0(a5)
    80009b38:	00078513          	mv	a0,a5
    80009b3c:	00000097          	auipc	ra,0x0
    80009b40:	e58080e7          	jalr	-424(ra) # 80009994 <free_desc>
    80009b44:	fd842783          	lw	a5,-40(s0)
    80009b48:	0017879b          	addiw	a5,a5,1
    80009b4c:	fcf42c23          	sw	a5,-40(s0)
    80009b50:	fd842703          	lw	a4,-40(s0)
    80009b54:	fdc42783          	lw	a5,-36(s0)
    80009b58:	0007071b          	sext.w	a4,a4
    80009b5c:	0007879b          	sext.w	a5,a5
    80009b60:	fcf742e3          	blt	a4,a5,80009b24 <alloc3_desc+0x60>
    80009b64:	fff00793          	li	a5,-1
    80009b68:	0240006f          	j	80009b8c <alloc3_desc+0xc8>
    80009b6c:	fdc42783          	lw	a5,-36(s0)
    80009b70:	0017879b          	addiw	a5,a5,1
    80009b74:	fcf42e23          	sw	a5,-36(s0)
    80009b78:	fdc42783          	lw	a5,-36(s0)
    80009b7c:	0007871b          	sext.w	a4,a5
    80009b80:	00200793          	li	a5,2
    80009b84:	f6e7d0e3          	bge	a5,a4,80009ae4 <alloc3_desc+0x20>
    80009b88:	00000793          	li	a5,0
    80009b8c:	00078513          	mv	a0,a5
    80009b90:	03813083          	ld	ra,56(sp)
    80009b94:	03013403          	ld	s0,48(sp)
    80009b98:	02813483          	ld	s1,40(sp)
    80009b9c:	04010113          	addi	sp,sp,64
    80009ba0:	00008067          	ret

0000000080009ba4 <free_chain>:
    80009ba4:	fd010113          	addi	sp,sp,-48
    80009ba8:	02113423          	sd	ra,40(sp)
    80009bac:	02813023          	sd	s0,32(sp)
    80009bb0:	03010413          	addi	s0,sp,48
    80009bb4:	00050793          	mv	a5,a0
    80009bb8:	fcf42e23          	sw	a5,-36(s0)
    80009bbc:	00820717          	auipc	a4,0x820
    80009bc0:	44470713          	addi	a4,a4,1092 # 8082a000 <disk>
    80009bc4:	000027b7          	lui	a5,0x2
    80009bc8:	00f707b3          	add	a5,a4,a5
    80009bcc:	0007b703          	ld	a4,0(a5) # 2000 <STACK_SIZE>
    80009bd0:	fdc42783          	lw	a5,-36(s0)
    80009bd4:	00479793          	slli	a5,a5,0x4
    80009bd8:	00f707b3          	add	a5,a4,a5
    80009bdc:	00c7d783          	lhu	a5,12(a5)
    80009be0:	fef42623          	sw	a5,-20(s0)
    80009be4:	00820717          	auipc	a4,0x820
    80009be8:	41c70713          	addi	a4,a4,1052 # 8082a000 <disk>
    80009bec:	000027b7          	lui	a5,0x2
    80009bf0:	00f707b3          	add	a5,a4,a5
    80009bf4:	0007b703          	ld	a4,0(a5) # 2000 <STACK_SIZE>
    80009bf8:	fdc42783          	lw	a5,-36(s0)
    80009bfc:	00479793          	slli	a5,a5,0x4
    80009c00:	00f707b3          	add	a5,a4,a5
    80009c04:	00e7d783          	lhu	a5,14(a5)
    80009c08:	fef42423          	sw	a5,-24(s0)
    80009c0c:	fdc42783          	lw	a5,-36(s0)
    80009c10:	00078513          	mv	a0,a5
    80009c14:	00000097          	auipc	ra,0x0
    80009c18:	d80080e7          	jalr	-640(ra) # 80009994 <free_desc>
    80009c1c:	fec42783          	lw	a5,-20(s0)
    80009c20:	0017f793          	andi	a5,a5,1
    80009c24:	0007879b          	sext.w	a5,a5
    80009c28:	00078863          	beqz	a5,80009c38 <free_chain+0x94>
    80009c2c:	fe842783          	lw	a5,-24(s0)
    80009c30:	fcf42e23          	sw	a5,-36(s0)
    80009c34:	f89ff06f          	j	80009bbc <free_chain+0x18>
    80009c38:	00000013          	nop
    80009c3c:	00000013          	nop
    80009c40:	02813083          	ld	ra,40(sp)
    80009c44:	02013403          	ld	s0,32(sp)
    80009c48:	03010113          	addi	sp,sp,48
    80009c4c:	00008067          	ret

0000000080009c50 <virt_disk_rw>:
    80009c50:	fc010113          	addi	sp,sp,-64
    80009c54:	02113c23          	sd	ra,56(sp)
    80009c58:	02813823          	sd	s0,48(sp)
    80009c5c:	04010413          	addi	s0,sp,64
    80009c60:	fca43423          	sd	a0,-56(s0)
    80009c64:	00058793          	mv	a5,a1
    80009c68:	fcf42223          	sw	a5,-60(s0)
    80009c6c:	fc843783          	ld	a5,-56(s0)
    80009c70:	0047a783          	lw	a5,4(a5)
    80009c74:	0017979b          	slliw	a5,a5,0x1
    80009c78:	0007879b          	sext.w	a5,a5
    80009c7c:	02079793          	slli	a5,a5,0x20
    80009c80:	0207d793          	srli	a5,a5,0x20
    80009c84:	fef43423          	sd	a5,-24(s0)
    80009c88:	00822517          	auipc	a0,0x822
    80009c8c:	4a050513          	addi	a0,a0,1184 # 8082c128 <disk+0x2128>
    80009c90:	00000097          	auipc	ra,0x0
    80009c94:	980080e7          	jalr	-1664(ra) # 80009610 <lock>
    80009c98:	fd040793          	addi	a5,s0,-48
    80009c9c:	00078513          	mv	a0,a5
    80009ca0:	00000097          	auipc	ra,0x0
    80009ca4:	e24080e7          	jalr	-476(ra) # 80009ac4 <alloc3_desc>
    80009ca8:	00050793          	mv	a5,a0
    80009cac:	00078463          	beqz	a5,80009cb4 <virt_disk_rw+0x64>
    80009cb0:	fe9ff06f          	j	80009c98 <virt_disk_rw+0x48>
    80009cb4:	00000013          	nop
    80009cb8:	fd042783          	lw	a5,-48(s0)
    80009cbc:	20078793          	addi	a5,a5,512
    80009cc0:	00479713          	slli	a4,a5,0x4
    80009cc4:	00820797          	auipc	a5,0x820
    80009cc8:	33c78793          	addi	a5,a5,828 # 8082a000 <disk>
    80009ccc:	00f707b3          	add	a5,a4,a5
    80009cd0:	0a878793          	addi	a5,a5,168
    80009cd4:	fef43023          	sd	a5,-32(s0)
    80009cd8:	fc442783          	lw	a5,-60(s0)
    80009cdc:	0007879b          	sext.w	a5,a5
    80009ce0:	00078a63          	beqz	a5,80009cf4 <virt_disk_rw+0xa4>
    80009ce4:	fe043783          	ld	a5,-32(s0)
    80009ce8:	00100713          	li	a4,1
    80009cec:	00e7a023          	sw	a4,0(a5)
    80009cf0:	00c0006f          	j	80009cfc <virt_disk_rw+0xac>
    80009cf4:	fe043783          	ld	a5,-32(s0)
    80009cf8:	0007a023          	sw	zero,0(a5)
    80009cfc:	fe043783          	ld	a5,-32(s0)
    80009d00:	0007a223          	sw	zero,4(a5)
    80009d04:	fe043783          	ld	a5,-32(s0)
    80009d08:	fe843703          	ld	a4,-24(s0)
    80009d0c:	00e7b423          	sd	a4,8(a5)
    80009d10:	00820717          	auipc	a4,0x820
    80009d14:	2f070713          	addi	a4,a4,752 # 8082a000 <disk>
    80009d18:	000027b7          	lui	a5,0x2
    80009d1c:	00f707b3          	add	a5,a4,a5
    80009d20:	0007b703          	ld	a4,0(a5) # 2000 <STACK_SIZE>
    80009d24:	fd042783          	lw	a5,-48(s0)
    80009d28:	00479793          	slli	a5,a5,0x4
    80009d2c:	00f707b3          	add	a5,a4,a5
    80009d30:	fe043703          	ld	a4,-32(s0)
    80009d34:	00e7b023          	sd	a4,0(a5)
    80009d38:	00820717          	auipc	a4,0x820
    80009d3c:	2c870713          	addi	a4,a4,712 # 8082a000 <disk>
    80009d40:	000027b7          	lui	a5,0x2
    80009d44:	00f707b3          	add	a5,a4,a5
    80009d48:	0007b703          	ld	a4,0(a5) # 2000 <STACK_SIZE>
    80009d4c:	fd042783          	lw	a5,-48(s0)
    80009d50:	00479793          	slli	a5,a5,0x4
    80009d54:	00f707b3          	add	a5,a4,a5
    80009d58:	01000713          	li	a4,16
    80009d5c:	00e7a423          	sw	a4,8(a5)
    80009d60:	00820717          	auipc	a4,0x820
    80009d64:	2a070713          	addi	a4,a4,672 # 8082a000 <disk>
    80009d68:	000027b7          	lui	a5,0x2
    80009d6c:	00f707b3          	add	a5,a4,a5
    80009d70:	0007b703          	ld	a4,0(a5) # 2000 <STACK_SIZE>
    80009d74:	fd042783          	lw	a5,-48(s0)
    80009d78:	00479793          	slli	a5,a5,0x4
    80009d7c:	00f707b3          	add	a5,a4,a5
    80009d80:	00100713          	li	a4,1
    80009d84:	00e79623          	sh	a4,12(a5)
    80009d88:	fd442683          	lw	a3,-44(s0)
    80009d8c:	00820717          	auipc	a4,0x820
    80009d90:	27470713          	addi	a4,a4,628 # 8082a000 <disk>
    80009d94:	000027b7          	lui	a5,0x2
    80009d98:	00f707b3          	add	a5,a4,a5
    80009d9c:	0007b703          	ld	a4,0(a5) # 2000 <STACK_SIZE>
    80009da0:	fd042783          	lw	a5,-48(s0)
    80009da4:	00479793          	slli	a5,a5,0x4
    80009da8:	00f707b3          	add	a5,a4,a5
    80009dac:	03069713          	slli	a4,a3,0x30
    80009db0:	03075713          	srli	a4,a4,0x30
    80009db4:	00e79723          	sh	a4,14(a5)
    80009db8:	fc843783          	ld	a5,-56(s0)
    80009dbc:	01c78793          	addi	a5,a5,28
    80009dc0:	00078693          	mv	a3,a5
    80009dc4:	00820717          	auipc	a4,0x820
    80009dc8:	23c70713          	addi	a4,a4,572 # 8082a000 <disk>
    80009dcc:	000027b7          	lui	a5,0x2
    80009dd0:	00f707b3          	add	a5,a4,a5
    80009dd4:	0007b703          	ld	a4,0(a5) # 2000 <STACK_SIZE>
    80009dd8:	fd442783          	lw	a5,-44(s0)
    80009ddc:	00479793          	slli	a5,a5,0x4
    80009de0:	00f707b3          	add	a5,a4,a5
    80009de4:	fff00713          	li	a4,-1
    80009de8:	02075713          	srli	a4,a4,0x20
    80009dec:	00e6f733          	and	a4,a3,a4
    80009df0:	00e7b023          	sd	a4,0(a5)
    80009df4:	00820717          	auipc	a4,0x820
    80009df8:	20c70713          	addi	a4,a4,524 # 8082a000 <disk>
    80009dfc:	000027b7          	lui	a5,0x2
    80009e00:	00f707b3          	add	a5,a4,a5
    80009e04:	0007b703          	ld	a4,0(a5) # 2000 <STACK_SIZE>
    80009e08:	fd442783          	lw	a5,-44(s0)
    80009e0c:	00479793          	slli	a5,a5,0x4
    80009e10:	00f707b3          	add	a5,a4,a5
    80009e14:	40000713          	li	a4,1024
    80009e18:	00e7a423          	sw	a4,8(a5)
    80009e1c:	fc442783          	lw	a5,-60(s0)
    80009e20:	0007879b          	sext.w	a5,a5
    80009e24:	02078663          	beqz	a5,80009e50 <virt_disk_rw+0x200>
    80009e28:	00820717          	auipc	a4,0x820
    80009e2c:	1d870713          	addi	a4,a4,472 # 8082a000 <disk>
    80009e30:	000027b7          	lui	a5,0x2
    80009e34:	00f707b3          	add	a5,a4,a5
    80009e38:	0007b703          	ld	a4,0(a5) # 2000 <STACK_SIZE>
    80009e3c:	fd442783          	lw	a5,-44(s0)
    80009e40:	00479793          	slli	a5,a5,0x4
    80009e44:	00f707b3          	add	a5,a4,a5
    80009e48:	00079623          	sh	zero,12(a5)
    80009e4c:	02c0006f          	j	80009e78 <virt_disk_rw+0x228>
    80009e50:	00820717          	auipc	a4,0x820
    80009e54:	1b070713          	addi	a4,a4,432 # 8082a000 <disk>
    80009e58:	000027b7          	lui	a5,0x2
    80009e5c:	00f707b3          	add	a5,a4,a5
    80009e60:	0007b703          	ld	a4,0(a5) # 2000 <STACK_SIZE>
    80009e64:	fd442783          	lw	a5,-44(s0)
    80009e68:	00479793          	slli	a5,a5,0x4
    80009e6c:	00f707b3          	add	a5,a4,a5
    80009e70:	00200713          	li	a4,2
    80009e74:	00e79623          	sh	a4,12(a5)
    80009e78:	00820717          	auipc	a4,0x820
    80009e7c:	18870713          	addi	a4,a4,392 # 8082a000 <disk>
    80009e80:	000027b7          	lui	a5,0x2
    80009e84:	00f707b3          	add	a5,a4,a5
    80009e88:	0007b703          	ld	a4,0(a5) # 2000 <STACK_SIZE>
    80009e8c:	fd442783          	lw	a5,-44(s0)
    80009e90:	00479793          	slli	a5,a5,0x4
    80009e94:	00f707b3          	add	a5,a4,a5
    80009e98:	00c7d703          	lhu	a4,12(a5)
    80009e9c:	00820697          	auipc	a3,0x820
    80009ea0:	16468693          	addi	a3,a3,356 # 8082a000 <disk>
    80009ea4:	000027b7          	lui	a5,0x2
    80009ea8:	00f687b3          	add	a5,a3,a5
    80009eac:	0007b683          	ld	a3,0(a5) # 2000 <STACK_SIZE>
    80009eb0:	fd442783          	lw	a5,-44(s0)
    80009eb4:	00479793          	slli	a5,a5,0x4
    80009eb8:	00f687b3          	add	a5,a3,a5
    80009ebc:	00176713          	ori	a4,a4,1
    80009ec0:	03071713          	slli	a4,a4,0x30
    80009ec4:	03075713          	srli	a4,a4,0x30
    80009ec8:	00e79623          	sh	a4,12(a5)
    80009ecc:	fd842683          	lw	a3,-40(s0)
    80009ed0:	00820717          	auipc	a4,0x820
    80009ed4:	13070713          	addi	a4,a4,304 # 8082a000 <disk>
    80009ed8:	000027b7          	lui	a5,0x2
    80009edc:	00f707b3          	add	a5,a4,a5
    80009ee0:	0007b703          	ld	a4,0(a5) # 2000 <STACK_SIZE>
    80009ee4:	fd442783          	lw	a5,-44(s0)
    80009ee8:	00479793          	slli	a5,a5,0x4
    80009eec:	00f707b3          	add	a5,a4,a5
    80009ef0:	03069713          	slli	a4,a3,0x30
    80009ef4:	03075713          	srli	a4,a4,0x30
    80009ef8:	00e79723          	sh	a4,14(a5)
    80009efc:	fd042783          	lw	a5,-48(s0)
    80009f00:	00820717          	auipc	a4,0x820
    80009f04:	10070713          	addi	a4,a4,256 # 8082a000 <disk>
    80009f08:	20078793          	addi	a5,a5,512
    80009f0c:	00479793          	slli	a5,a5,0x4
    80009f10:	00f707b3          	add	a5,a4,a5
    80009f14:	02078423          	sb	zero,40(a5)
    80009f18:	fd042783          	lw	a5,-48(s0)
    80009f1c:	20078793          	addi	a5,a5,512
    80009f20:	00479713          	slli	a4,a5,0x4
    80009f24:	00820797          	auipc	a5,0x820
    80009f28:	0dc78793          	addi	a5,a5,220 # 8082a000 <disk>
    80009f2c:	00f707b3          	add	a5,a4,a5
    80009f30:	02878693          	addi	a3,a5,40
    80009f34:	00820717          	auipc	a4,0x820
    80009f38:	0cc70713          	addi	a4,a4,204 # 8082a000 <disk>
    80009f3c:	000027b7          	lui	a5,0x2
    80009f40:	00f707b3          	add	a5,a4,a5
    80009f44:	0007b703          	ld	a4,0(a5) # 2000 <STACK_SIZE>
    80009f48:	fd842783          	lw	a5,-40(s0)
    80009f4c:	00479793          	slli	a5,a5,0x4
    80009f50:	00f707b3          	add	a5,a4,a5
    80009f54:	00068713          	mv	a4,a3
    80009f58:	00e7b023          	sd	a4,0(a5)
    80009f5c:	00820717          	auipc	a4,0x820
    80009f60:	0a470713          	addi	a4,a4,164 # 8082a000 <disk>
    80009f64:	000027b7          	lui	a5,0x2
    80009f68:	00f707b3          	add	a5,a4,a5
    80009f6c:	0007b703          	ld	a4,0(a5) # 2000 <STACK_SIZE>
    80009f70:	fd842783          	lw	a5,-40(s0)
    80009f74:	00479793          	slli	a5,a5,0x4
    80009f78:	00f707b3          	add	a5,a4,a5
    80009f7c:	00100713          	li	a4,1
    80009f80:	00e7a423          	sw	a4,8(a5)
    80009f84:	00820717          	auipc	a4,0x820
    80009f88:	07c70713          	addi	a4,a4,124 # 8082a000 <disk>
    80009f8c:	000027b7          	lui	a5,0x2
    80009f90:	00f707b3          	add	a5,a4,a5
    80009f94:	0007b703          	ld	a4,0(a5) # 2000 <STACK_SIZE>
    80009f98:	fd842783          	lw	a5,-40(s0)
    80009f9c:	00479793          	slli	a5,a5,0x4
    80009fa0:	00f707b3          	add	a5,a4,a5
    80009fa4:	00200713          	li	a4,2
    80009fa8:	00e79623          	sh	a4,12(a5)
    80009fac:	00820717          	auipc	a4,0x820
    80009fb0:	05470713          	addi	a4,a4,84 # 8082a000 <disk>
    80009fb4:	000027b7          	lui	a5,0x2
    80009fb8:	00f707b3          	add	a5,a4,a5
    80009fbc:	0007b703          	ld	a4,0(a5) # 2000 <STACK_SIZE>
    80009fc0:	fd842783          	lw	a5,-40(s0)
    80009fc4:	00479793          	slli	a5,a5,0x4
    80009fc8:	00f707b3          	add	a5,a4,a5
    80009fcc:	00079723          	sh	zero,14(a5)
    80009fd0:	fc843783          	ld	a5,-56(s0)
    80009fd4:	00100713          	li	a4,1
    80009fd8:	00e7ac23          	sw	a4,24(a5)
    80009fdc:	fd042783          	lw	a5,-48(s0)
    80009fe0:	00820717          	auipc	a4,0x820
    80009fe4:	02070713          	addi	a4,a4,32 # 8082a000 <disk>
    80009fe8:	20078793          	addi	a5,a5,512
    80009fec:	00479793          	slli	a5,a5,0x4
    80009ff0:	00f707b3          	add	a5,a4,a5
    80009ff4:	fc843703          	ld	a4,-56(s0)
    80009ff8:	02e7b023          	sd	a4,32(a5)
    80009ffc:	0ff0000f          	fence
    8000a000:	fd042603          	lw	a2,-48(s0)
    8000a004:	00820717          	auipc	a4,0x820
    8000a008:	ffc70713          	addi	a4,a4,-4 # 8082a000 <disk>
    8000a00c:	000027b7          	lui	a5,0x2
    8000a010:	00f707b3          	add	a5,a4,a5
    8000a014:	0087b683          	ld	a3,8(a5) # 2008 <STACK_SIZE+0x8>
    8000a018:	00820717          	auipc	a4,0x820
    8000a01c:	fe870713          	addi	a4,a4,-24 # 8082a000 <disk>
    8000a020:	000027b7          	lui	a5,0x2
    8000a024:	00f707b3          	add	a5,a4,a5
    8000a028:	0087b783          	ld	a5,8(a5) # 2008 <STACK_SIZE+0x8>
    8000a02c:	0027d783          	lhu	a5,2(a5)
    8000a030:	0007879b          	sext.w	a5,a5
    8000a034:	0077f793          	andi	a5,a5,7
    8000a038:	0007879b          	sext.w	a5,a5
    8000a03c:	03061713          	slli	a4,a2,0x30
    8000a040:	03075713          	srli	a4,a4,0x30
    8000a044:	00179793          	slli	a5,a5,0x1
    8000a048:	00f687b3          	add	a5,a3,a5
    8000a04c:	00e79223          	sh	a4,4(a5)
    8000a050:	0ff0000f          	fence
    8000a054:	00820717          	auipc	a4,0x820
    8000a058:	fac70713          	addi	a4,a4,-84 # 8082a000 <disk>
    8000a05c:	000027b7          	lui	a5,0x2
    8000a060:	00f707b3          	add	a5,a4,a5
    8000a064:	0087b783          	ld	a5,8(a5) # 2008 <STACK_SIZE+0x8>
    8000a068:	0027d703          	lhu	a4,2(a5)
    8000a06c:	00820697          	auipc	a3,0x820
    8000a070:	f9468693          	addi	a3,a3,-108 # 8082a000 <disk>
    8000a074:	000027b7          	lui	a5,0x2
    8000a078:	00f687b3          	add	a5,a3,a5
    8000a07c:	0087b783          	ld	a5,8(a5) # 2008 <STACK_SIZE+0x8>
    8000a080:	0017071b          	addiw	a4,a4,1
    8000a084:	03071713          	slli	a4,a4,0x30
    8000a088:	03075713          	srli	a4,a4,0x30
    8000a08c:	00e79123          	sh	a4,2(a5)
    8000a090:	100017b7          	lui	a5,0x10001
    8000a094:	05078793          	addi	a5,a5,80 # 10001050 <STACK_SIZE+0xffff050>
    8000a098:	0007a023          	sw	zero,0(a5)
    8000a09c:	00000013          	nop
    8000a0a0:	fc843783          	ld	a5,-56(s0)
    8000a0a4:	0187a783          	lw	a5,24(a5)
    8000a0a8:	00078713          	mv	a4,a5
    8000a0ac:	00100793          	li	a5,1
    8000a0b0:	fef708e3          	beq	a4,a5,8000a0a0 <virt_disk_rw+0x450>
    8000a0b4:	fd042783          	lw	a5,-48(s0)
    8000a0b8:	00820717          	auipc	a4,0x820
    8000a0bc:	f4870713          	addi	a4,a4,-184 # 8082a000 <disk>
    8000a0c0:	20078793          	addi	a5,a5,512
    8000a0c4:	00479793          	slli	a5,a5,0x4
    8000a0c8:	00f707b3          	add	a5,a4,a5
    8000a0cc:	0207b023          	sd	zero,32(a5)
    8000a0d0:	fd042783          	lw	a5,-48(s0)
    8000a0d4:	00078513          	mv	a0,a5
    8000a0d8:	00000097          	auipc	ra,0x0
    8000a0dc:	acc080e7          	jalr	-1332(ra) # 80009ba4 <free_chain>
    8000a0e0:	00822517          	auipc	a0,0x822
    8000a0e4:	04850513          	addi	a0,a0,72 # 8082c128 <disk+0x2128>
    8000a0e8:	fffff097          	auipc	ra,0xfffff
    8000a0ec:	588080e7          	jalr	1416(ra) # 80009670 <unlock>
    8000a0f0:	00000013          	nop
    8000a0f4:	03813083          	ld	ra,56(sp)
    8000a0f8:	03013403          	ld	s0,48(sp)
    8000a0fc:	04010113          	addi	sp,sp,64
    8000a100:	00008067          	ret

000000008000a104 <virtio_disk_init>:
    8000a104:	fd010113          	addi	sp,sp,-48
    8000a108:	02113423          	sd	ra,40(sp)
    8000a10c:	02813023          	sd	s0,32(sp)
    8000a110:	03010413          	addi	s0,sp,48
    8000a114:	fe042423          	sw	zero,-24(s0)
    8000a118:	00000597          	auipc	a1,0x0
    8000a11c:	71058593          	addi	a1,a1,1808 # 8000a828 <memset+0x298>
    8000a120:	00822517          	auipc	a0,0x822
    8000a124:	00850513          	addi	a0,a0,8 # 8082c128 <disk+0x2128>
    8000a128:	fffff097          	auipc	ra,0xfffff
    8000a12c:	4b0080e7          	jalr	1200(ra) # 800095d8 <initlock>
    8000a130:	100017b7          	lui	a5,0x10001
    8000a134:	0007a783          	lw	a5,0(a5) # 10001000 <STACK_SIZE+0xffff000>
    8000a138:	0007879b          	sext.w	a5,a5
    8000a13c:	00078713          	mv	a4,a5
    8000a140:	747277b7          	lui	a5,0x74727
    8000a144:	97678793          	addi	a5,a5,-1674 # 74726976 <STACK_SIZE+0x74724976>
    8000a148:	04f71e63          	bne	a4,a5,8000a1a4 <virtio_disk_init+0xa0>
    8000a14c:	100017b7          	lui	a5,0x10001
    8000a150:	00478793          	addi	a5,a5,4 # 10001004 <STACK_SIZE+0xffff004>
    8000a154:	0007a783          	lw	a5,0(a5)
    8000a158:	0007879b          	sext.w	a5,a5
    8000a15c:	00078713          	mv	a4,a5
    8000a160:	00100793          	li	a5,1
    8000a164:	04f71063          	bne	a4,a5,8000a1a4 <virtio_disk_init+0xa0>
    8000a168:	100017b7          	lui	a5,0x10001
    8000a16c:	00878793          	addi	a5,a5,8 # 10001008 <STACK_SIZE+0xffff008>
    8000a170:	0007a783          	lw	a5,0(a5)
    8000a174:	0007879b          	sext.w	a5,a5
    8000a178:	00078713          	mv	a4,a5
    8000a17c:	00200793          	li	a5,2
    8000a180:	02f71263          	bne	a4,a5,8000a1a4 <virtio_disk_init+0xa0>
    8000a184:	100017b7          	lui	a5,0x10001
    8000a188:	00c78793          	addi	a5,a5,12 # 1000100c <STACK_SIZE+0xffff00c>
    8000a18c:	0007a783          	lw	a5,0(a5)
    8000a190:	0007879b          	sext.w	a5,a5
    8000a194:	00078713          	mv	a4,a5
    8000a198:	554d47b7          	lui	a5,0x554d4
    8000a19c:	55178793          	addi	a5,a5,1361 # 554d4551 <STACK_SIZE+0x554d2551>
    8000a1a0:	00f70c63          	beq	a4,a5,8000a1b8 <virtio_disk_init+0xb4>
    8000a1a4:	00000517          	auipc	a0,0x0
    8000a1a8:	69450513          	addi	a0,a0,1684 # 8000a838 <memset+0x2a8>
    8000a1ac:	fffff097          	auipc	ra,0xfffff
    8000a1b0:	9e4080e7          	jalr	-1564(ra) # 80008b90 <println>
    8000a1b4:	26c0006f          	j	8000a420 <virtio_disk_init+0x31c>
    8000a1b8:	fe842783          	lw	a5,-24(s0)
    8000a1bc:	0017e793          	ori	a5,a5,1
    8000a1c0:	fef42423          	sw	a5,-24(s0)
    8000a1c4:	100017b7          	lui	a5,0x10001
    8000a1c8:	07078793          	addi	a5,a5,112 # 10001070 <STACK_SIZE+0xffff070>
    8000a1cc:	fe842703          	lw	a4,-24(s0)
    8000a1d0:	00e7a023          	sw	a4,0(a5)
    8000a1d4:	fe842783          	lw	a5,-24(s0)
    8000a1d8:	0027e793          	ori	a5,a5,2
    8000a1dc:	fef42423          	sw	a5,-24(s0)
    8000a1e0:	100017b7          	lui	a5,0x10001
    8000a1e4:	07078793          	addi	a5,a5,112 # 10001070 <STACK_SIZE+0xffff070>
    8000a1e8:	fe842703          	lw	a4,-24(s0)
    8000a1ec:	00e7a023          	sw	a4,0(a5)
    8000a1f0:	100017b7          	lui	a5,0x10001
    8000a1f4:	01078793          	addi	a5,a5,16 # 10001010 <STACK_SIZE+0xffff010>
    8000a1f8:	0007a783          	lw	a5,0(a5)
    8000a1fc:	0007879b          	sext.w	a5,a5
    8000a200:	02079793          	slli	a5,a5,0x20
    8000a204:	0207d793          	srli	a5,a5,0x20
    8000a208:	fef43023          	sd	a5,-32(s0)
    8000a20c:	fe043783          	ld	a5,-32(s0)
    8000a210:	fdf7f793          	andi	a5,a5,-33
    8000a214:	fef43023          	sd	a5,-32(s0)
    8000a218:	fe043783          	ld	a5,-32(s0)
    8000a21c:	f7f7f793          	andi	a5,a5,-129
    8000a220:	fef43023          	sd	a5,-32(s0)
    8000a224:	fe043703          	ld	a4,-32(s0)
    8000a228:	fffff7b7          	lui	a5,0xfffff
    8000a22c:	7ff78793          	addi	a5,a5,2047 # fffffffffffff7ff <disk+0xffffffff7f7d57ff>
    8000a230:	00f777b3          	and	a5,a4,a5
    8000a234:	fef43023          	sd	a5,-32(s0)
    8000a238:	fe043703          	ld	a4,-32(s0)
    8000a23c:	fffff7b7          	lui	a5,0xfffff
    8000a240:	fff78793          	addi	a5,a5,-1 # ffffffffffffefff <disk+0xffffffff7f7d4fff>
    8000a244:	00f777b3          	and	a5,a4,a5
    8000a248:	fef43023          	sd	a5,-32(s0)
    8000a24c:	fe043703          	ld	a4,-32(s0)
    8000a250:	f80007b7          	lui	a5,0xf8000
    8000a254:	fff78793          	addi	a5,a5,-1 # fffffffff7ffffff <disk+0xffffffff777d5fff>
    8000a258:	00f777b3          	and	a5,a4,a5
    8000a25c:	fef43023          	sd	a5,-32(s0)
    8000a260:	fe043703          	ld	a4,-32(s0)
    8000a264:	e00007b7          	lui	a5,0xe0000
    8000a268:	fff78793          	addi	a5,a5,-1 # ffffffffdfffffff <disk+0xffffffff5f7d5fff>
    8000a26c:	00f777b3          	and	a5,a4,a5
    8000a270:	fef43023          	sd	a5,-32(s0)
    8000a274:	fe043703          	ld	a4,-32(s0)
    8000a278:	f00007b7          	lui	a5,0xf0000
    8000a27c:	fff78793          	addi	a5,a5,-1 # ffffffffefffffff <disk+0xffffffff6f7d5fff>
    8000a280:	00f777b3          	and	a5,a4,a5
    8000a284:	fef43023          	sd	a5,-32(s0)
    8000a288:	100017b7          	lui	a5,0x10001
    8000a28c:	02078793          	addi	a5,a5,32 # 10001020 <STACK_SIZE+0xffff020>
    8000a290:	fe043703          	ld	a4,-32(s0)
    8000a294:	0007071b          	sext.w	a4,a4
    8000a298:	00e7a023          	sw	a4,0(a5)
    8000a29c:	fe842783          	lw	a5,-24(s0)
    8000a2a0:	0087e793          	ori	a5,a5,8
    8000a2a4:	fef42423          	sw	a5,-24(s0)
    8000a2a8:	100017b7          	lui	a5,0x10001
    8000a2ac:	07078793          	addi	a5,a5,112 # 10001070 <STACK_SIZE+0xffff070>
    8000a2b0:	fe842703          	lw	a4,-24(s0)
    8000a2b4:	00e7a023          	sw	a4,0(a5)
    8000a2b8:	fe842783          	lw	a5,-24(s0)
    8000a2bc:	0047e793          	ori	a5,a5,4
    8000a2c0:	fef42423          	sw	a5,-24(s0)
    8000a2c4:	100017b7          	lui	a5,0x10001
    8000a2c8:	07078793          	addi	a5,a5,112 # 10001070 <STACK_SIZE+0xffff070>
    8000a2cc:	fe842703          	lw	a4,-24(s0)
    8000a2d0:	00e7a023          	sw	a4,0(a5)
    8000a2d4:	100017b7          	lui	a5,0x10001
    8000a2d8:	02878793          	addi	a5,a5,40 # 10001028 <STACK_SIZE+0xffff028>
    8000a2dc:	00001737          	lui	a4,0x1
    8000a2e0:	00e7a023          	sw	a4,0(a5)
    8000a2e4:	100017b7          	lui	a5,0x10001
    8000a2e8:	03078793          	addi	a5,a5,48 # 10001030 <STACK_SIZE+0xffff030>
    8000a2ec:	0007a023          	sw	zero,0(a5)
    8000a2f0:	100017b7          	lui	a5,0x10001
    8000a2f4:	03478793          	addi	a5,a5,52 # 10001034 <STACK_SIZE+0xffff034>
    8000a2f8:	0007a783          	lw	a5,0(a5)
    8000a2fc:	fcf42e23          	sw	a5,-36(s0)
    8000a300:	fdc42783          	lw	a5,-36(s0)
    8000a304:	0007879b          	sext.w	a5,a5
    8000a308:	00079c63          	bnez	a5,8000a320 <virtio_disk_init+0x21c>
    8000a30c:	00000517          	auipc	a0,0x0
    8000a310:	54c50513          	addi	a0,a0,1356 # 8000a858 <memset+0x2c8>
    8000a314:	fffff097          	auipc	ra,0xfffff
    8000a318:	87c080e7          	jalr	-1924(ra) # 80008b90 <println>
    8000a31c:	1040006f          	j	8000a420 <virtio_disk_init+0x31c>
    8000a320:	fdc42783          	lw	a5,-36(s0)
    8000a324:	0007871b          	sext.w	a4,a5
    8000a328:	00700793          	li	a5,7
    8000a32c:	00e7ec63          	bltu	a5,a4,8000a344 <virtio_disk_init+0x240>
    8000a330:	00000517          	auipc	a0,0x0
    8000a334:	54850513          	addi	a0,a0,1352 # 8000a878 <memset+0x2e8>
    8000a338:	fffff097          	auipc	ra,0xfffff
    8000a33c:	858080e7          	jalr	-1960(ra) # 80008b90 <println>
    8000a340:	0e00006f          	j	8000a420 <virtio_disk_init+0x31c>
    8000a344:	100017b7          	lui	a5,0x10001
    8000a348:	03878793          	addi	a5,a5,56 # 10001038 <STACK_SIZE+0xffff038>
    8000a34c:	00800713          	li	a4,8
    8000a350:	00e7a023          	sw	a4,0(a5)
    8000a354:	00002637          	lui	a2,0x2
    8000a358:	00000593          	li	a1,0
    8000a35c:	00820517          	auipc	a0,0x820
    8000a360:	ca450513          	addi	a0,a0,-860 # 8082a000 <disk>
    8000a364:	00000097          	auipc	ra,0x0
    8000a368:	22c080e7          	jalr	556(ra) # 8000a590 <memset>
    8000a36c:	00820797          	auipc	a5,0x820
    8000a370:	c9478793          	addi	a5,a5,-876 # 8082a000 <disk>
    8000a374:	00c7d713          	srli	a4,a5,0xc
    8000a378:	100017b7          	lui	a5,0x10001
    8000a37c:	04078793          	addi	a5,a5,64 # 10001040 <STACK_SIZE+0xffff040>
    8000a380:	0007071b          	sext.w	a4,a4
    8000a384:	00e7a023          	sw	a4,0(a5)
    8000a388:	00820717          	auipc	a4,0x820
    8000a38c:	c7870713          	addi	a4,a4,-904 # 8082a000 <disk>
    8000a390:	000027b7          	lui	a5,0x2
    8000a394:	00f707b3          	add	a5,a4,a5
    8000a398:	00820717          	auipc	a4,0x820
    8000a39c:	c6870713          	addi	a4,a4,-920 # 8082a000 <disk>
    8000a3a0:	00e7b023          	sd	a4,0(a5) # 2000 <STACK_SIZE>
    8000a3a4:	00820717          	auipc	a4,0x820
    8000a3a8:	cdc70713          	addi	a4,a4,-804 # 8082a080 <disk+0x80>
    8000a3ac:	00820697          	auipc	a3,0x820
    8000a3b0:	c5468693          	addi	a3,a3,-940 # 8082a000 <disk>
    8000a3b4:	000027b7          	lui	a5,0x2
    8000a3b8:	00f687b3          	add	a5,a3,a5
    8000a3bc:	00e7b423          	sd	a4,8(a5) # 2008 <STACK_SIZE+0x8>
    8000a3c0:	00821717          	auipc	a4,0x821
    8000a3c4:	c4070713          	addi	a4,a4,-960 # 8082b000 <disk+0x1000>
    8000a3c8:	00820697          	auipc	a3,0x820
    8000a3cc:	c3868693          	addi	a3,a3,-968 # 8082a000 <disk>
    8000a3d0:	000027b7          	lui	a5,0x2
    8000a3d4:	00f687b3          	add	a5,a3,a5
    8000a3d8:	00e7b823          	sd	a4,16(a5) # 2010 <STACK_SIZE+0x10>
    8000a3dc:	fe042623          	sw	zero,-20(s0)
    8000a3e0:	0300006f          	j	8000a410 <virtio_disk_init+0x30c>
    8000a3e4:	00820717          	auipc	a4,0x820
    8000a3e8:	c1c70713          	addi	a4,a4,-996 # 8082a000 <disk>
    8000a3ec:	fec42783          	lw	a5,-20(s0)
    8000a3f0:	00f707b3          	add	a5,a4,a5
    8000a3f4:	00002737          	lui	a4,0x2
    8000a3f8:	00f707b3          	add	a5,a4,a5
    8000a3fc:	00100713          	li	a4,1
    8000a400:	00e78c23          	sb	a4,24(a5)
    8000a404:	fec42783          	lw	a5,-20(s0)
    8000a408:	0017879b          	addiw	a5,a5,1
    8000a40c:	fef42623          	sw	a5,-20(s0)
    8000a410:	fec42783          	lw	a5,-20(s0)
    8000a414:	0007871b          	sext.w	a4,a5
    8000a418:	00700793          	li	a5,7
    8000a41c:	fce7d4e3          	bge	a5,a4,8000a3e4 <virtio_disk_init+0x2e0>
    8000a420:	02813083          	ld	ra,40(sp)
    8000a424:	02013403          	ld	s0,32(sp)
    8000a428:	03010113          	addi	sp,sp,48
    8000a42c:	00008067          	ret

000000008000a430 <virtio_disk_isr>:
    8000a430:	fe010113          	addi	sp,sp,-32
    8000a434:	00113c23          	sd	ra,24(sp)
    8000a438:	00813823          	sd	s0,16(sp)
    8000a43c:	02010413          	addi	s0,sp,32
    8000a440:	100017b7          	lui	a5,0x10001
    8000a444:	06078793          	addi	a5,a5,96 # 10001060 <STACK_SIZE+0xffff060>
    8000a448:	0007a783          	lw	a5,0(a5)
    8000a44c:	0007871b          	sext.w	a4,a5
    8000a450:	100017b7          	lui	a5,0x10001
    8000a454:	06478793          	addi	a5,a5,100 # 10001064 <STACK_SIZE+0xffff064>
    8000a458:	00377713          	andi	a4,a4,3
    8000a45c:	0007071b          	sext.w	a4,a4
    8000a460:	00e7a023          	sw	a4,0(a5)
    8000a464:	0ff0000f          	fence
    8000a468:	0d80006f          	j	8000a540 <virtio_disk_isr+0x110>
    8000a46c:	0ff0000f          	fence
    8000a470:	00820717          	auipc	a4,0x820
    8000a474:	b9070713          	addi	a4,a4,-1136 # 8082a000 <disk>
    8000a478:	000027b7          	lui	a5,0x2
    8000a47c:	00f707b3          	add	a5,a4,a5
    8000a480:	0107b703          	ld	a4,16(a5) # 2010 <STACK_SIZE+0x10>
    8000a484:	00820697          	auipc	a3,0x820
    8000a488:	b7c68693          	addi	a3,a3,-1156 # 8082a000 <disk>
    8000a48c:	000027b7          	lui	a5,0x2
    8000a490:	00f687b3          	add	a5,a3,a5
    8000a494:	0a07d783          	lhu	a5,160(a5) # 20a0 <STACK_SIZE+0xa0>
    8000a498:	0007879b          	sext.w	a5,a5
    8000a49c:	0077f793          	andi	a5,a5,7
    8000a4a0:	0007879b          	sext.w	a5,a5
    8000a4a4:	00379793          	slli	a5,a5,0x3
    8000a4a8:	00f707b3          	add	a5,a4,a5
    8000a4ac:	0047a783          	lw	a5,4(a5)
    8000a4b0:	fef42623          	sw	a5,-20(s0)
    8000a4b4:	00820717          	auipc	a4,0x820
    8000a4b8:	b4c70713          	addi	a4,a4,-1204 # 8082a000 <disk>
    8000a4bc:	fec42783          	lw	a5,-20(s0)
    8000a4c0:	20078793          	addi	a5,a5,512
    8000a4c4:	00479793          	slli	a5,a5,0x4
    8000a4c8:	00f707b3          	add	a5,a4,a5
    8000a4cc:	0287c783          	lbu	a5,40(a5)
    8000a4d0:	00078a63          	beqz	a5,8000a4e4 <virtio_disk_isr+0xb4>
    8000a4d4:	00000517          	auipc	a0,0x0
    8000a4d8:	3c450513          	addi	a0,a0,964 # 8000a898 <memset+0x308>
    8000a4dc:	ffffe097          	auipc	ra,0xffffe
    8000a4e0:	6b4080e7          	jalr	1716(ra) # 80008b90 <println>
    8000a4e4:	00820717          	auipc	a4,0x820
    8000a4e8:	b1c70713          	addi	a4,a4,-1252 # 8082a000 <disk>
    8000a4ec:	fec42783          	lw	a5,-20(s0)
    8000a4f0:	20078793          	addi	a5,a5,512
    8000a4f4:	00479793          	slli	a5,a5,0x4
    8000a4f8:	00f707b3          	add	a5,a4,a5
    8000a4fc:	0207b783          	ld	a5,32(a5)
    8000a500:	fef43023          	sd	a5,-32(s0)
    8000a504:	fe043783          	ld	a5,-32(s0)
    8000a508:	0007ac23          	sw	zero,24(a5)
    8000a50c:	00820717          	auipc	a4,0x820
    8000a510:	af470713          	addi	a4,a4,-1292 # 8082a000 <disk>
    8000a514:	000027b7          	lui	a5,0x2
    8000a518:	00f707b3          	add	a5,a4,a5
    8000a51c:	0a07d783          	lhu	a5,160(a5) # 20a0 <STACK_SIZE+0xa0>
    8000a520:	0017879b          	addiw	a5,a5,1
    8000a524:	03079713          	slli	a4,a5,0x30
    8000a528:	03075713          	srli	a4,a4,0x30
    8000a52c:	00820697          	auipc	a3,0x820
    8000a530:	ad468693          	addi	a3,a3,-1324 # 8082a000 <disk>
    8000a534:	000027b7          	lui	a5,0x2
    8000a538:	00f687b3          	add	a5,a3,a5
    8000a53c:	0ae79023          	sh	a4,160(a5) # 20a0 <STACK_SIZE+0xa0>
    8000a540:	00820717          	auipc	a4,0x820
    8000a544:	ac070713          	addi	a4,a4,-1344 # 8082a000 <disk>
    8000a548:	000027b7          	lui	a5,0x2
    8000a54c:	00f707b3          	add	a5,a4,a5
    8000a550:	0a07d683          	lhu	a3,160(a5) # 20a0 <STACK_SIZE+0xa0>
    8000a554:	00820717          	auipc	a4,0x820
    8000a558:	aac70713          	addi	a4,a4,-1364 # 8082a000 <disk>
    8000a55c:	000027b7          	lui	a5,0x2
    8000a560:	00f707b3          	add	a5,a4,a5
    8000a564:	0107b783          	ld	a5,16(a5) # 2010 <STACK_SIZE+0x10>
    8000a568:	0027d783          	lhu	a5,2(a5)
    8000a56c:	0006871b          	sext.w	a4,a3
    8000a570:	0007879b          	sext.w	a5,a5
    8000a574:	eef71ce3          	bne	a4,a5,8000a46c <virtio_disk_isr+0x3c>
    8000a578:	00000013          	nop
    8000a57c:	00000013          	nop
    8000a580:	01813083          	ld	ra,24(sp)
    8000a584:	01013403          	ld	s0,16(sp)
    8000a588:	02010113          	addi	sp,sp,32
    8000a58c:	00008067          	ret

000000008000a590 <memset>:
    8000a590:	fd010113          	addi	sp,sp,-48
    8000a594:	02813423          	sd	s0,40(sp)
    8000a598:	03010413          	addi	s0,sp,48
    8000a59c:	fca43c23          	sd	a0,-40(s0)
    8000a5a0:	00058793          	mv	a5,a1
    8000a5a4:	00060713          	mv	a4,a2
    8000a5a8:	fcf42a23          	sw	a5,-44(s0)
    8000a5ac:	00070793          	mv	a5,a4
    8000a5b0:	fcf42823          	sw	a5,-48(s0)
    8000a5b4:	fd843783          	ld	a5,-40(s0)
    8000a5b8:	fef43023          	sd	a5,-32(s0)
    8000a5bc:	fe042623          	sw	zero,-20(s0)
    8000a5c0:	0280006f          	j	8000a5e8 <memset+0x58>
    8000a5c4:	fec42783          	lw	a5,-20(s0)
    8000a5c8:	fe043703          	ld	a4,-32(s0)
    8000a5cc:	00f707b3          	add	a5,a4,a5
    8000a5d0:	fd442703          	lw	a4,-44(s0)
    8000a5d4:	0ff77713          	andi	a4,a4,255
    8000a5d8:	00e78023          	sb	a4,0(a5)
    8000a5dc:	fec42783          	lw	a5,-20(s0)
    8000a5e0:	0017879b          	addiw	a5,a5,1
    8000a5e4:	fef42623          	sw	a5,-20(s0)
    8000a5e8:	fec42703          	lw	a4,-20(s0)
    8000a5ec:	fd042783          	lw	a5,-48(s0)
    8000a5f0:	0007071b          	sext.w	a4,a4
    8000a5f4:	0007879b          	sext.w	a5,a5
    8000a5f8:	fcf746e3          	blt	a4,a5,8000a5c4 <memset+0x34>
    8000a5fc:	fe043783          	ld	a5,-32(s0)
    8000a600:	00078513          	mv	a0,a5
    8000a604:	02813403          	ld	s0,40(sp)
    8000a608:	03010113          	addi	sp,sp,48
    8000a60c:	00008067          	ret
