
src/kernel/kernel:     file format elf64-littleriscv


Disassembly of section .text:

0000000080000000 <_entry>:
    80000000:	f14022f3          	csrr	t0,mhartid
    80000004:	02aa                	slli	t0,t0,0xa
    80000006:	00002117          	auipc	sp,0x2
    8000000a:	01a10113          	addi	sp,sp,26 # 80002020 <stacks+0x2000>
    8000000e:	9116                	add	sp,sp,t0
    80000010:	f1402573          	csrr	a0,mhartid
    80000014:	e119                	bnez	a0,8000001a <park>
    80000016:	3360806f          	j	8000834c <start>

000000008000001a <park>:
    8000001a:	10500073          	wfi
    8000001e:	bff5                	j	8000001a <park>

0000000080000020 <stacks>:
	...

0000000080008020 <read_sie>:
    80008020:	fe010113          	addi	sp,sp,-32
    80008024:	00813c23          	sd	s0,24(sp)
    80008028:	02010413          	addi	s0,sp,32
    8000802c:	104027f3          	csrr	a5,sie
    80008030:	fef43423          	sd	a5,-24(s0)
    80008034:	fe843783          	ld	a5,-24(s0)
    80008038:	00078513          	mv	a0,a5
    8000803c:	01813403          	ld	s0,24(sp)
    80008040:	02010113          	addi	sp,sp,32
    80008044:	00008067          	ret

0000000080008048 <write_sie>:
    80008048:	fe010113          	addi	sp,sp,-32
    8000804c:	00813c23          	sd	s0,24(sp)
    80008050:	02010413          	addi	s0,sp,32
    80008054:	fea43423          	sd	a0,-24(s0)
    80008058:	fe843783          	ld	a5,-24(s0)
    8000805c:	10479073          	csrw	sie,a5
    80008060:	00000013          	nop
    80008064:	01813403          	ld	s0,24(sp)
    80008068:	02010113          	addi	sp,sp,32
    8000806c:	00008067          	ret

0000000080008070 <write_mscratch>:
    80008070:	fe010113          	addi	sp,sp,-32
    80008074:	00813c23          	sd	s0,24(sp)
    80008078:	02010413          	addi	s0,sp,32
    8000807c:	fea43423          	sd	a0,-24(s0)
    80008080:	fe843783          	ld	a5,-24(s0)
    80008084:	34079073          	csrw	mscratch,a5
    80008088:	00000013          	nop
    8000808c:	01813403          	ld	s0,24(sp)
    80008090:	02010113          	addi	sp,sp,32
    80008094:	00008067          	ret

0000000080008098 <write_medeleg>:
    80008098:	fe010113          	addi	sp,sp,-32
    8000809c:	00813c23          	sd	s0,24(sp)
    800080a0:	02010413          	addi	s0,sp,32
    800080a4:	fea43423          	sd	a0,-24(s0)
    800080a8:	fe843783          	ld	a5,-24(s0)
    800080ac:	30279073          	csrw	medeleg,a5
    800080b0:	00000013          	nop
    800080b4:	01813403          	ld	s0,24(sp)
    800080b8:	02010113          	addi	sp,sp,32
    800080bc:	00008067          	ret

00000000800080c0 <write_mideleg>:
    800080c0:	fe010113          	addi	sp,sp,-32
    800080c4:	00813c23          	sd	s0,24(sp)
    800080c8:	02010413          	addi	s0,sp,32
    800080cc:	fea43423          	sd	a0,-24(s0)
    800080d0:	fe843783          	ld	a5,-24(s0)
    800080d4:	30379073          	csrw	mideleg,a5
    800080d8:	00000013          	nop
    800080dc:	01813403          	ld	s0,24(sp)
    800080e0:	02010113          	addi	sp,sp,32
    800080e4:	00008067          	ret

00000000800080e8 <write_satp>:
    800080e8:	fe010113          	addi	sp,sp,-32
    800080ec:	00813c23          	sd	s0,24(sp)
    800080f0:	02010413          	addi	s0,sp,32
    800080f4:	fea43423          	sd	a0,-24(s0)
    800080f8:	fe843783          	ld	a5,-24(s0)
    800080fc:	18079073          	csrw	satp,a5
    80008100:	00000013          	nop
    80008104:	01813403          	ld	s0,24(sp)
    80008108:	02010113          	addi	sp,sp,32
    8000810c:	00008067          	ret

0000000080008110 <write_pmpaddr0>:
    80008110:	fe010113          	addi	sp,sp,-32
    80008114:	00813c23          	sd	s0,24(sp)
    80008118:	02010413          	addi	s0,sp,32
    8000811c:	fea43423          	sd	a0,-24(s0)
    80008120:	fe843783          	ld	a5,-24(s0)
    80008124:	3b079073          	csrw	pmpaddr0,a5
    80008128:	00000013          	nop
    8000812c:	01813403          	ld	s0,24(sp)
    80008130:	02010113          	addi	sp,sp,32
    80008134:	00008067          	ret

0000000080008138 <write_pmpcfg0>:
    80008138:	fe010113          	addi	sp,sp,-32
    8000813c:	00813c23          	sd	s0,24(sp)
    80008140:	02010413          	addi	s0,sp,32
    80008144:	fea43423          	sd	a0,-24(s0)
    80008148:	fe843783          	ld	a5,-24(s0)
    8000814c:	3a079073          	csrw	pmpcfg0,a5
    80008150:	00000013          	nop
    80008154:	01813403          	ld	s0,24(sp)
    80008158:	02010113          	addi	sp,sp,32
    8000815c:	00008067          	ret

0000000080008160 <write_tp>:
    80008160:	fe010113          	addi	sp,sp,-32
    80008164:	00813c23          	sd	s0,24(sp)
    80008168:	02010413          	addi	s0,sp,32
    8000816c:	fea43423          	sd	a0,-24(s0)
    80008170:	fe843783          	ld	a5,-24(s0)
    80008174:	00078213          	mv	tp,a5
    80008178:	00000013          	nop
    8000817c:	01813403          	ld	s0,24(sp)
    80008180:	02010113          	addi	sp,sp,32
    80008184:	00008067          	ret

0000000080008188 <write_mepc>:
    80008188:	fe010113          	addi	sp,sp,-32
    8000818c:	00813c23          	sd	s0,24(sp)
    80008190:	02010413          	addi	s0,sp,32
    80008194:	fea43423          	sd	a0,-24(s0)
    80008198:	fe843783          	ld	a5,-24(s0)
    8000819c:	34179073          	csrw	mepc,a5
    800081a0:	00000013          	nop
    800081a4:	01813403          	ld	s0,24(sp)
    800081a8:	02010113          	addi	sp,sp,32
    800081ac:	00008067          	ret

00000000800081b0 <write_mtvec>:
    800081b0:	fe010113          	addi	sp,sp,-32
    800081b4:	00813c23          	sd	s0,24(sp)
    800081b8:	02010413          	addi	s0,sp,32
    800081bc:	fea43423          	sd	a0,-24(s0)
    800081c0:	fe843783          	ld	a5,-24(s0)
    800081c4:	30579073          	csrw	mtvec,a5
    800081c8:	00000013          	nop
    800081cc:	01813403          	ld	s0,24(sp)
    800081d0:	02010113          	addi	sp,sp,32
    800081d4:	00008067          	ret

00000000800081d8 <write_mstatus>:
    800081d8:	fe010113          	addi	sp,sp,-32
    800081dc:	00813c23          	sd	s0,24(sp)
    800081e0:	02010413          	addi	s0,sp,32
    800081e4:	fea43423          	sd	a0,-24(s0)
    800081e8:	fe843783          	ld	a5,-24(s0)
    800081ec:	30079073          	csrw	mstatus,a5
    800081f0:	00000013          	nop
    800081f4:	01813403          	ld	s0,24(sp)
    800081f8:	02010113          	addi	sp,sp,32
    800081fc:	00008067          	ret

0000000080008200 <read_mhartid>:
    80008200:	fe010113          	addi	sp,sp,-32
    80008204:	00813c23          	sd	s0,24(sp)
    80008208:	02010413          	addi	s0,sp,32
    8000820c:	f14027f3          	csrr	a5,mhartid
    80008210:	fef43423          	sd	a5,-24(s0)
    80008214:	fe843783          	ld	a5,-24(s0)
    80008218:	00078513          	mv	a0,a5
    8000821c:	01813403          	ld	s0,24(sp)
    80008220:	02010113          	addi	sp,sp,32
    80008224:	00008067          	ret

0000000080008228 <read_mstatus>:
    80008228:	fe010113          	addi	sp,sp,-32
    8000822c:	00813c23          	sd	s0,24(sp)
    80008230:	02010413          	addi	s0,sp,32
    80008234:	300027f3          	csrr	a5,mstatus
    80008238:	fef43423          	sd	a5,-24(s0)
    8000823c:	fe843783          	ld	a5,-24(s0)
    80008240:	00078513          	mv	a0,a5
    80008244:	01813403          	ld	s0,24(sp)
    80008248:	02010113          	addi	sp,sp,32
    8000824c:	00008067          	ret

0000000080008250 <write_mie>:
    80008250:	fe010113          	addi	sp,sp,-32
    80008254:	00813c23          	sd	s0,24(sp)
    80008258:	02010413          	addi	s0,sp,32
    8000825c:	fea43423          	sd	a0,-24(s0)
    80008260:	fe843783          	ld	a5,-24(s0)
    80008264:	30479073          	csrw	mie,a5
    80008268:	00000013          	nop
    8000826c:	00078513          	mv	a0,a5
    80008270:	01813403          	ld	s0,24(sp)
    80008274:	02010113          	addi	sp,sp,32
    80008278:	00008067          	ret

000000008000827c <read_mie>:
    8000827c:	fe010113          	addi	sp,sp,-32
    80008280:	00813c23          	sd	s0,24(sp)
    80008284:	02010413          	addi	s0,sp,32
    80008288:	304027f3          	csrr	a5,mie
    8000828c:	fef43423          	sd	a5,-24(s0)
    80008290:	fe843783          	ld	a5,-24(s0)
    80008294:	00078513          	mv	a0,a5
    80008298:	01813403          	ld	s0,24(sp)
    8000829c:	02010113          	addi	sp,sp,32
    800082a0:	00008067          	ret

00000000800082a4 <timer_handler>:
    800082a4:	fe010113          	addi	sp,sp,-32
    800082a8:	00113c23          	sd	ra,24(sp)
    800082ac:	00813823          	sd	s0,16(sp)
    800082b0:	02010413          	addi	s0,sp,32
    800082b4:	00002797          	auipc	a5,0x2
    800082b8:	eac78793          	addi	a5,a5,-340 # 8000a160 <timer_processed_count>
    800082bc:	0007a783          	lw	a5,0(a5)
    800082c0:	0017879b          	addiw	a5,a5,1
    800082c4:	0007871b          	sext.w	a4,a5
    800082c8:	00002797          	auipc	a5,0x2
    800082cc:	e9878793          	addi	a5,a5,-360 # 8000a160 <timer_processed_count>
    800082d0:	00e7a023          	sw	a4,0(a5)
    800082d4:	00001097          	auipc	ra,0x1
    800082d8:	8a8080e7          	jalr	-1880(ra) # 80008b7c <get_tasks>
    800082dc:	00050793          	mv	a5,a0
    800082e0:	fef42623          	sw	a5,-20(s0)
    800082e4:	fec42783          	lw	a5,-20(s0)
    800082e8:	0007879b          	sext.w	a5,a5
    800082ec:	04078663          	beqz	a5,80008338 <timer_handler+0x94>
    800082f0:	00002797          	auipc	a5,0x2
    800082f4:	e7078793          	addi	a5,a5,-400 # 8000a160 <timer_processed_count>
    800082f8:	0007a783          	lw	a5,0(a5)
    800082fc:	00078713          	mv	a4,a5
    80008300:	fec42783          	lw	a5,-20(s0)
    80008304:	02f767bb          	remw	a5,a4,a5
    80008308:	fef42423          	sw	a5,-24(s0)
    8000830c:	fe842783          	lw	a5,-24(s0)
    80008310:	00078593          	mv	a1,a5
    80008314:	00001517          	auipc	a0,0x1
    80008318:	c4c50513          	addi	a0,a0,-948 # 80008f60 <trapinit+0x38>
    8000831c:	00000097          	auipc	ra,0x0
    80008320:	500080e7          	jalr	1280(ra) # 8000881c <printf>
    80008324:	fe842783          	lw	a5,-24(s0)
    80008328:	00078513          	mv	a0,a5
    8000832c:	00000097          	auipc	ra,0x0
    80008330:	7a4080e7          	jalr	1956(ra) # 80008ad0 <run_target_task_num>
    80008334:	0080006f          	j	8000833c <timer_handler+0x98>
    80008338:	00000013          	nop
    8000833c:	01813083          	ld	ra,24(sp)
    80008340:	01013403          	ld	s0,16(sp)
    80008344:	02010113          	addi	sp,sp,32
    80008348:	00008067          	ret

000000008000834c <start>:
    8000834c:	fe010113          	addi	sp,sp,-32
    80008350:	00113c23          	sd	ra,24(sp)
    80008354:	00813823          	sd	s0,16(sp)
    80008358:	02010413          	addi	s0,sp,32
    8000835c:	00000097          	auipc	ra,0x0
    80008360:	ecc080e7          	jalr	-308(ra) # 80008228 <read_mstatus>
    80008364:	fea43423          	sd	a0,-24(s0)
    80008368:	fe843703          	ld	a4,-24(s0)
    8000836c:	ffffe7b7          	lui	a5,0xffffe
    80008370:	7ff78793          	addi	a5,a5,2047 # ffffffffffffe7ff <taskTop+0xffffffff7f7d8627>
    80008374:	00f777b3          	and	a5,a4,a5
    80008378:	fef43423          	sd	a5,-24(s0)
    8000837c:	fe843703          	ld	a4,-24(s0)
    80008380:	000017b7          	lui	a5,0x1
    80008384:	80078793          	addi	a5,a5,-2048 # 800 <STACK_SIZE-0x1800>
    80008388:	00f767b3          	or	a5,a4,a5
    8000838c:	fef43423          	sd	a5,-24(s0)
    80008390:	fe843503          	ld	a0,-24(s0)
    80008394:	00000097          	auipc	ra,0x0
    80008398:	e44080e7          	jalr	-444(ra) # 800081d8 <write_mstatus>
    8000839c:	00000797          	auipc	a5,0x0
    800083a0:	1f878793          	addi	a5,a5,504 # 80008594 <main>
    800083a4:	00078513          	mv	a0,a5
    800083a8:	00000097          	auipc	ra,0x0
    800083ac:	de0080e7          	jalr	-544(ra) # 80008188 <write_mepc>
    800083b0:	00000513          	li	a0,0
    800083b4:	00000097          	auipc	ra,0x0
    800083b8:	d34080e7          	jalr	-716(ra) # 800080e8 <write_satp>
    800083bc:	000107b7          	lui	a5,0x10
    800083c0:	fff78513          	addi	a0,a5,-1 # ffff <STACK_SIZE+0xdfff>
    800083c4:	00000097          	auipc	ra,0x0
    800083c8:	cd4080e7          	jalr	-812(ra) # 80008098 <write_medeleg>
    800083cc:	000107b7          	lui	a5,0x10
    800083d0:	fff78513          	addi	a0,a5,-1 # ffff <STACK_SIZE+0xdfff>
    800083d4:	00000097          	auipc	ra,0x0
    800083d8:	cec080e7          	jalr	-788(ra) # 800080c0 <write_mideleg>
    800083dc:	00000097          	auipc	ra,0x0
    800083e0:	c44080e7          	jalr	-956(ra) # 80008020 <read_sie>
    800083e4:	00050793          	mv	a5,a0
    800083e8:	2227e793          	ori	a5,a5,546
    800083ec:	00078513          	mv	a0,a5
    800083f0:	00000097          	auipc	ra,0x0
    800083f4:	c58080e7          	jalr	-936(ra) # 80008048 <write_sie>
    800083f8:	fff00793          	li	a5,-1
    800083fc:	00a7d513          	srli	a0,a5,0xa
    80008400:	00000097          	auipc	ra,0x0
    80008404:	d10080e7          	jalr	-752(ra) # 80008110 <write_pmpaddr0>
    80008408:	00f00513          	li	a0,15
    8000840c:	00000097          	auipc	ra,0x0
    80008410:	d2c080e7          	jalr	-724(ra) # 80008138 <write_pmpcfg0>
    80008414:	00000097          	auipc	ra,0x0
    80008418:	038080e7          	jalr	56(ra) # 8000844c <timer_init>
    8000841c:	00000097          	auipc	ra,0x0
    80008420:	de4080e7          	jalr	-540(ra) # 80008200 <read_mhartid>
    80008424:	00050793          	mv	a5,a0
    80008428:	00078513          	mv	a0,a5
    8000842c:	00000097          	auipc	ra,0x0
    80008430:	d34080e7          	jalr	-716(ra) # 80008160 <write_tp>
    80008434:	30200073          	mret
    80008438:	00000013          	nop
    8000843c:	01813083          	ld	ra,24(sp)
    80008440:	01013403          	ld	s0,16(sp)
    80008444:	02010113          	addi	sp,sp,32
    80008448:	00008067          	ret

000000008000844c <timer_init>:
    8000844c:	fe010113          	addi	sp,sp,-32
    80008450:	00113c23          	sd	ra,24(sp)
    80008454:	00813823          	sd	s0,16(sp)
    80008458:	02010413          	addi	s0,sp,32
    8000845c:	00000097          	auipc	ra,0x0
    80008460:	da4080e7          	jalr	-604(ra) # 80008200 <read_mhartid>
    80008464:	fea43423          	sd	a0,-24(s0)
    80008468:	0200c7b7          	lui	a5,0x200c
    8000846c:	ff878793          	addi	a5,a5,-8 # 200bff8 <STACK_SIZE+0x2009ff8>
    80008470:	0007b703          	ld	a4,0(a5)
    80008474:	fe843683          	ld	a3,-24(s0)
    80008478:	008017b7          	lui	a5,0x801
    8000847c:	00f687b3          	add	a5,a3,a5
    80008480:	00279793          	slli	a5,a5,0x2
    80008484:	00078693          	mv	a3,a5
    80008488:	000f47b7          	lui	a5,0xf4
    8000848c:	24078793          	addi	a5,a5,576 # f4240 <STACK_SIZE+0xf2240>
    80008490:	00f707b3          	add	a5,a4,a5
    80008494:	00f6b023          	sd	a5,0(a3)
    80008498:	fe843703          	ld	a4,-24(s0)
    8000849c:	00070793          	mv	a5,a4
    800084a0:	00279793          	slli	a5,a5,0x2
    800084a4:	00e787b3          	add	a5,a5,a4
    800084a8:	00379793          	slli	a5,a5,0x3
    800084ac:	00002717          	auipc	a4,0x2
    800084b0:	b7470713          	addi	a4,a4,-1164 # 8000a020 <timer_scratch>
    800084b4:	00e787b3          	add	a5,a5,a4
    800084b8:	fef43023          	sd	a5,-32(s0)
    800084bc:	fe843703          	ld	a4,-24(s0)
    800084c0:	008017b7          	lui	a5,0x801
    800084c4:	00f70733          	add	a4,a4,a5
    800084c8:	fe043783          	ld	a5,-32(s0)
    800084cc:	01878793          	addi	a5,a5,24 # 801018 <STACK_SIZE+0x7ff018>
    800084d0:	00271713          	slli	a4,a4,0x2
    800084d4:	00e7b023          	sd	a4,0(a5)
    800084d8:	fe043783          	ld	a5,-32(s0)
    800084dc:	02078793          	addi	a5,a5,32
    800084e0:	000f4737          	lui	a4,0xf4
    800084e4:	24070713          	addi	a4,a4,576 # f4240 <STACK_SIZE+0xf2240>
    800084e8:	00e7b023          	sd	a4,0(a5)
    800084ec:	fe043783          	ld	a5,-32(s0)
    800084f0:	00078513          	mv	a0,a5
    800084f4:	00000097          	auipc	ra,0x0
    800084f8:	b7c080e7          	jalr	-1156(ra) # 80008070 <write_mscratch>
    800084fc:	00000797          	auipc	a5,0x0
    80008500:	06478793          	addi	a5,a5,100 # 80008560 <timervec>
    80008504:	00078513          	mv	a0,a5
    80008508:	00000097          	auipc	ra,0x0
    8000850c:	ca8080e7          	jalr	-856(ra) # 800081b0 <write_mtvec>
    80008510:	00000097          	auipc	ra,0x0
    80008514:	d18080e7          	jalr	-744(ra) # 80008228 <read_mstatus>
    80008518:	00050793          	mv	a5,a0
    8000851c:	0087e793          	ori	a5,a5,8
    80008520:	00078513          	mv	a0,a5
    80008524:	00000097          	auipc	ra,0x0
    80008528:	cb4080e7          	jalr	-844(ra) # 800081d8 <write_mstatus>
    8000852c:	00000097          	auipc	ra,0x0
    80008530:	d50080e7          	jalr	-688(ra) # 8000827c <read_mie>
    80008534:	00050793          	mv	a5,a0
    80008538:	0807e793          	ori	a5,a5,128
    8000853c:	00078513          	mv	a0,a5
    80008540:	00000097          	auipc	ra,0x0
    80008544:	d10080e7          	jalr	-752(ra) # 80008250 <write_mie>
    80008548:	00000013          	nop
    8000854c:	01813083          	ld	ra,24(sp)
    80008550:	01013403          	ld	s0,16(sp)
    80008554:	02010113          	addi	sp,sp,32
    80008558:	00008067          	ret
    8000855c:	0000                	unimp
	...

0000000080008560 <timervec>:
    80008560:	34051573          	csrrw	a0,mscratch,a0
    80008564:	e10c                	sd	a1,0(a0)
    80008566:	e510                	sd	a2,8(a0)
    80008568:	e914                	sd	a3,16(a0)
    8000856a:	6d0c                	ld	a1,24(a0)
    8000856c:	7110                	ld	a2,32(a0)
    8000856e:	6194                	ld	a3,0(a1)
    80008570:	96b2                	add	a3,a3,a2
    80008572:	e194                	sd	a3,0(a1)
    80008574:	4589                	li	a1,2
    80008576:	14459073          	csrw	sip,a1
    8000857a:	6914                	ld	a3,16(a0)
    8000857c:	6510                	ld	a2,8(a0)
    8000857e:	610c                	ld	a1,0(a0)
    80008580:	34051573          	csrrw	a0,mscratch,a0
    80008584:	30200073          	mret
	...

0000000080008594 <main>:
    80008594:	ff010113          	addi	sp,sp,-16
    80008598:	00113423          	sd	ra,8(sp)
    8000859c:	00813023          	sd	s0,0(sp)
    800085a0:	01010413          	addi	s0,sp,16
    800085a4:	00001517          	auipc	a0,0x1
    800085a8:	9d450513          	addi	a0,a0,-1580 # 80008f78 <trapinit+0x50>
    800085ac:	00000097          	auipc	ra,0x0
    800085b0:	438080e7          	jalr	1080(ra) # 800089e4 <print>
    800085b4:	00001097          	auipc	ra,0x1
    800085b8:	974080e7          	jalr	-1676(ra) # 80008f28 <trapinit>
    800085bc:	00000097          	auipc	ra,0x0
    800085c0:	798080e7          	jalr	1944(ra) # 80008d54 <user_init>
    800085c4:	14415073          	csrwi	sip,2
    800085c8:	0000006f          	j	800085c8 <main+0x34>

00000000800085cc <printInt>:
    800085cc:	fc010113          	addi	sp,sp,-64
    800085d0:	02113c23          	sd	ra,56(sp)
    800085d4:	02813823          	sd	s0,48(sp)
    800085d8:	04010413          	addi	s0,sp,64
    800085dc:	00050793          	mv	a5,a0
    800085e0:	00058713          	mv	a4,a1
    800085e4:	fcf42623          	sw	a5,-52(s0)
    800085e8:	00070793          	mv	a5,a4
    800085ec:	fcf42423          	sw	a5,-56(s0)
    800085f0:	fe042623          	sw	zero,-20(s0)
    800085f4:	fcc42703          	lw	a4,-52(s0)
    800085f8:	00a00793          	li	a5,10
    800085fc:	02f767bb          	remw	a5,a4,a5
    80008600:	0007871b          	sext.w	a4,a5
    80008604:	fec42783          	lw	a5,-20(s0)
    80008608:	0017869b          	addiw	a3,a5,1
    8000860c:	fed42623          	sw	a3,-20(s0)
    80008610:	00002697          	auipc	a3,0x2
    80008614:	9f068693          	addi	a3,a3,-1552 # 8000a000 <nums>
    80008618:	00e68733          	add	a4,a3,a4
    8000861c:	00074703          	lbu	a4,0(a4)
    80008620:	ff040693          	addi	a3,s0,-16
    80008624:	00f687b3          	add	a5,a3,a5
    80008628:	fee78423          	sb	a4,-24(a5)
    8000862c:	fcc42703          	lw	a4,-52(s0)
    80008630:	00a00793          	li	a5,10
    80008634:	02f747bb          	divw	a5,a4,a5
    80008638:	fcf42623          	sw	a5,-52(s0)
    8000863c:	fcc42783          	lw	a5,-52(s0)
    80008640:	0007879b          	sext.w	a5,a5
    80008644:	faf048e3          	bgtz	a5,800085f4 <printInt+0x28>
    80008648:	fec42783          	lw	a5,-20(s0)
    8000864c:	fff7879b          	addiw	a5,a5,-1
    80008650:	fef42623          	sw	a5,-20(s0)
    80008654:	02c0006f          	j	80008680 <printInt+0xb4>
    80008658:	fec42783          	lw	a5,-20(s0)
    8000865c:	ff040713          	addi	a4,s0,-16
    80008660:	00f707b3          	add	a5,a4,a5
    80008664:	fe87c783          	lbu	a5,-24(a5)
    80008668:	00078513          	mv	a0,a5
    8000866c:	00000097          	auipc	ra,0x0
    80008670:	798080e7          	jalr	1944(ra) # 80008e04 <uart_putc>
    80008674:	fec42783          	lw	a5,-20(s0)
    80008678:	fff7879b          	addiw	a5,a5,-1
    8000867c:	fef42623          	sw	a5,-20(s0)
    80008680:	fec42783          	lw	a5,-20(s0)
    80008684:	0007879b          	sext.w	a5,a5
    80008688:	fc07d8e3          	bgez	a5,80008658 <printInt+0x8c>
    8000868c:	00000013          	nop
    80008690:	00000013          	nop
    80008694:	03813083          	ld	ra,56(sp)
    80008698:	03013403          	ld	s0,48(sp)
    8000869c:	04010113          	addi	sp,sp,64
    800086a0:	00008067          	ret

00000000800086a4 <printPtr>:
    800086a4:	fd010113          	addi	sp,sp,-48
    800086a8:	02113423          	sd	ra,40(sp)
    800086ac:	02813023          	sd	s0,32(sp)
    800086b0:	03010413          	addi	s0,sp,48
    800086b4:	fca43c23          	sd	a0,-40(s0)
    800086b8:	fd843783          	ld	a5,-40(s0)
    800086bc:	06078a63          	beqz	a5,80008730 <printPtr+0x8c>
    800086c0:	03000513          	li	a0,48
    800086c4:	00000097          	auipc	ra,0x0
    800086c8:	740080e7          	jalr	1856(ra) # 80008e04 <uart_putc>
    800086cc:	07800513          	li	a0,120
    800086d0:	00000097          	auipc	ra,0x0
    800086d4:	734080e7          	jalr	1844(ra) # 80008e04 <uart_putc>
    800086d8:	fe042623          	sw	zero,-20(s0)
    800086dc:	0400006f          	j	8000871c <printPtr+0x78>
    800086e0:	fd843783          	ld	a5,-40(s0)
    800086e4:	03c7d793          	srli	a5,a5,0x3c
    800086e8:	00002717          	auipc	a4,0x2
    800086ec:	91870713          	addi	a4,a4,-1768 # 8000a000 <nums>
    800086f0:	00f707b3          	add	a5,a4,a5
    800086f4:	0007c783          	lbu	a5,0(a5)
    800086f8:	00078513          	mv	a0,a5
    800086fc:	00000097          	auipc	ra,0x0
    80008700:	708080e7          	jalr	1800(ra) # 80008e04 <uart_putc>
    80008704:	fec42783          	lw	a5,-20(s0)
    80008708:	0017879b          	addiw	a5,a5,1
    8000870c:	fef42623          	sw	a5,-20(s0)
    80008710:	fd843783          	ld	a5,-40(s0)
    80008714:	00479793          	slli	a5,a5,0x4
    80008718:	fcf43c23          	sd	a5,-40(s0)
    8000871c:	fec42783          	lw	a5,-20(s0)
    80008720:	00078713          	mv	a4,a5
    80008724:	00f00793          	li	a5,15
    80008728:	fae7fce3          	bgeu	a5,a4,800086e0 <printPtr+0x3c>
    8000872c:	0080006f          	j	80008734 <printPtr+0x90>
    80008730:	00000013          	nop
    80008734:	02813083          	ld	ra,40(sp)
    80008738:	02013403          	ld	s0,32(sp)
    8000873c:	03010113          	addi	sp,sp,48
    80008740:	00008067          	ret

0000000080008744 <printP>:
    80008744:	fb010113          	addi	sp,sp,-80
    80008748:	04113423          	sd	ra,72(sp)
    8000874c:	04813023          	sd	s0,64(sp)
    80008750:	05010413          	addi	s0,sp,80
    80008754:	faa43c23          	sd	a0,-72(s0)
    80008758:	03000513          	li	a0,48
    8000875c:	00000097          	auipc	ra,0x0
    80008760:	6a8080e7          	jalr	1704(ra) # 80008e04 <uart_putc>
    80008764:	07800513          	li	a0,120
    80008768:	00000097          	auipc	ra,0x0
    8000876c:	69c080e7          	jalr	1692(ra) # 80008e04 <uart_putc>
    80008770:	fb843783          	ld	a5,-72(s0)
    80008774:	0007879b          	sext.w	a5,a5
    80008778:	00f7f793          	andi	a5,a5,15
    8000877c:	fef42423          	sw	a5,-24(s0)
    80008780:	fec42783          	lw	a5,-20(s0)
    80008784:	0017871b          	addiw	a4,a5,1
    80008788:	fee42623          	sw	a4,-20(s0)
    8000878c:	00002697          	auipc	a3,0x2
    80008790:	87468693          	addi	a3,a3,-1932 # 8000a000 <nums>
    80008794:	fe842703          	lw	a4,-24(s0)
    80008798:	00e68733          	add	a4,a3,a4
    8000879c:	00074703          	lbu	a4,0(a4)
    800087a0:	ff040693          	addi	a3,s0,-16
    800087a4:	00f687b3          	add	a5,a3,a5
    800087a8:	fce78c23          	sb	a4,-40(a5)
    800087ac:	fb843783          	ld	a5,-72(s0)
    800087b0:	0047d793          	srli	a5,a5,0x4
    800087b4:	faf43c23          	sd	a5,-72(s0)
    800087b8:	fb843783          	ld	a5,-72(s0)
    800087bc:	fa079ae3          	bnez	a5,80008770 <printP+0x2c>
    800087c0:	fec42783          	lw	a5,-20(s0)
    800087c4:	fff7879b          	addiw	a5,a5,-1
    800087c8:	fef42623          	sw	a5,-20(s0)
    800087cc:	02c0006f          	j	800087f8 <printP+0xb4>
    800087d0:	fec42783          	lw	a5,-20(s0)
    800087d4:	ff040713          	addi	a4,s0,-16
    800087d8:	00f707b3          	add	a5,a4,a5
    800087dc:	fd87c783          	lbu	a5,-40(a5)
    800087e0:	00078513          	mv	a0,a5
    800087e4:	00000097          	auipc	ra,0x0
    800087e8:	620080e7          	jalr	1568(ra) # 80008e04 <uart_putc>
    800087ec:	fec42783          	lw	a5,-20(s0)
    800087f0:	fff7879b          	addiw	a5,a5,-1
    800087f4:	fef42623          	sw	a5,-20(s0)
    800087f8:	fec42783          	lw	a5,-20(s0)
    800087fc:	0007879b          	sext.w	a5,a5
    80008800:	fc07d8e3          	bgez	a5,800087d0 <printP+0x8c>
    80008804:	00000013          	nop
    80008808:	00000013          	nop
    8000880c:	04813083          	ld	ra,72(sp)
    80008810:	04013403          	ld	s0,64(sp)
    80008814:	05010113          	addi	sp,sp,80
    80008818:	00008067          	ret

000000008000881c <printf>:
    8000881c:	f8010113          	addi	sp,sp,-128
    80008820:	02113c23          	sd	ra,56(sp)
    80008824:	02813823          	sd	s0,48(sp)
    80008828:	04010413          	addi	s0,sp,64
    8000882c:	fca43423          	sd	a0,-56(s0)
    80008830:	00b43423          	sd	a1,8(s0)
    80008834:	00c43823          	sd	a2,16(s0)
    80008838:	00d43c23          	sd	a3,24(s0)
    8000883c:	02e43023          	sd	a4,32(s0)
    80008840:	02f43423          	sd	a5,40(s0)
    80008844:	03043823          	sd	a6,48(s0)
    80008848:	03143c23          	sd	a7,56(s0)
    8000884c:	fc843783          	ld	a5,-56(s0)
    80008850:	18078063          	beqz	a5,800089d0 <printf+0x1b4>
    80008854:	04040793          	addi	a5,s0,64
    80008858:	fcf43023          	sd	a5,-64(s0)
    8000885c:	fc043783          	ld	a5,-64(s0)
    80008860:	fc878793          	addi	a5,a5,-56
    80008864:	fcf43c23          	sd	a5,-40(s0)
    80008868:	fe042623          	sw	zero,-20(s0)
    8000886c:	14c0006f          	j	800089b8 <printf+0x19c>
    80008870:	fec42783          	lw	a5,-20(s0)
    80008874:	fc843703          	ld	a4,-56(s0)
    80008878:	00f707b3          	add	a5,a4,a5
    8000887c:	0007c783          	lbu	a5,0(a5)
    80008880:	fef405a3          	sb	a5,-21(s0)
    80008884:	feb44783          	lbu	a5,-21(s0)
    80008888:	0ff7f713          	andi	a4,a5,255
    8000888c:	02500793          	li	a5,37
    80008890:	00f70c63          	beq	a4,a5,800088a8 <printf+0x8c>
    80008894:	feb44783          	lbu	a5,-21(s0)
    80008898:	00078513          	mv	a0,a5
    8000889c:	00000097          	auipc	ra,0x0
    800088a0:	568080e7          	jalr	1384(ra) # 80008e04 <uart_putc>
    800088a4:	1080006f          	j	800089ac <printf+0x190>
    800088a8:	fec42783          	lw	a5,-20(s0)
    800088ac:	0017879b          	addiw	a5,a5,1
    800088b0:	fef42623          	sw	a5,-20(s0)
    800088b4:	fec42783          	lw	a5,-20(s0)
    800088b8:	fc843703          	ld	a4,-56(s0)
    800088bc:	00f707b3          	add	a5,a4,a5
    800088c0:	0007c783          	lbu	a5,0(a5)
    800088c4:	fef40523          	sb	a5,-22(s0)
    800088c8:	fea44783          	lbu	a5,-22(s0)
    800088cc:	0ff7f793          	andi	a5,a5,255
    800088d0:	00079c63          	bnez	a5,800088e8 <printf+0xcc>
    800088d4:	feb44783          	lbu	a5,-21(s0)
    800088d8:	00078513          	mv	a0,a5
    800088dc:	00000097          	auipc	ra,0x0
    800088e0:	528080e7          	jalr	1320(ra) # 80008e04 <uart_putc>
    800088e4:	0c80006f          	j	800089ac <printf+0x190>
    800088e8:	fea44783          	lbu	a5,-22(s0)
    800088ec:	0007879b          	sext.w	a5,a5
    800088f0:	00078693          	mv	a3,a5
    800088f4:	07300713          	li	a4,115
    800088f8:	04e68863          	beq	a3,a4,80008948 <printf+0x12c>
    800088fc:	00078693          	mv	a3,a5
    80008900:	07300713          	li	a4,115
    80008904:	08d74863          	blt	a4,a3,80008994 <printf+0x178>
    80008908:	00078693          	mv	a3,a5
    8000890c:	06400713          	li	a4,100
    80008910:	00e68a63          	beq	a3,a4,80008924 <printf+0x108>
    80008914:	00078713          	mv	a4,a5
    80008918:	07000793          	li	a5,112
    8000891c:	04f70c63          	beq	a4,a5,80008974 <printf+0x158>
    80008920:	0740006f          	j	80008994 <printf+0x178>
    80008924:	fd843783          	ld	a5,-40(s0)
    80008928:	00878713          	addi	a4,a5,8
    8000892c:	fce43c23          	sd	a4,-40(s0)
    80008930:	0007a783          	lw	a5,0(a5)
    80008934:	00100593          	li	a1,1
    80008938:	00078513          	mv	a0,a5
    8000893c:	00000097          	auipc	ra,0x0
    80008940:	c90080e7          	jalr	-880(ra) # 800085cc <printInt>
    80008944:	0680006f          	j	800089ac <printf+0x190>
    80008948:	fd843783          	ld	a5,-40(s0)
    8000894c:	00878713          	addi	a4,a5,8
    80008950:	fce43c23          	sd	a4,-40(s0)
    80008954:	0007b783          	ld	a5,0(a5)
    80008958:	fef43023          	sd	a5,-32(s0)
    8000895c:	fe043783          	ld	a5,-32(s0)
    80008960:	04078463          	beqz	a5,800089a8 <printf+0x18c>
    80008964:	fe043503          	ld	a0,-32(s0)
    80008968:	00000097          	auipc	ra,0x0
    8000896c:	07c080e7          	jalr	124(ra) # 800089e4 <print>
    80008970:	0380006f          	j	800089a8 <printf+0x18c>
    80008974:	fd843783          	ld	a5,-40(s0)
    80008978:	00878713          	addi	a4,a5,8
    8000897c:	fce43c23          	sd	a4,-40(s0)
    80008980:	0007b783          	ld	a5,0(a5)
    80008984:	00078513          	mv	a0,a5
    80008988:	00000097          	auipc	ra,0x0
    8000898c:	d1c080e7          	jalr	-740(ra) # 800086a4 <printPtr>
    80008990:	01c0006f          	j	800089ac <printf+0x190>
    80008994:	fea44783          	lbu	a5,-22(s0)
    80008998:	00078513          	mv	a0,a5
    8000899c:	00000097          	auipc	ra,0x0
    800089a0:	468080e7          	jalr	1128(ra) # 80008e04 <uart_putc>
    800089a4:	0080006f          	j	800089ac <printf+0x190>
    800089a8:	00000013          	nop
    800089ac:	fec42783          	lw	a5,-20(s0)
    800089b0:	0017879b          	addiw	a5,a5,1
    800089b4:	fef42623          	sw	a5,-20(s0)
    800089b8:	fec42783          	lw	a5,-20(s0)
    800089bc:	fc843703          	ld	a4,-56(s0)
    800089c0:	00f707b3          	add	a5,a4,a5
    800089c4:	0007c783          	lbu	a5,0(a5)
    800089c8:	ea0794e3          	bnez	a5,80008870 <printf+0x54>
    800089cc:	0080006f          	j	800089d4 <printf+0x1b8>
    800089d0:	00000013          	nop
    800089d4:	03813083          	ld	ra,56(sp)
    800089d8:	03013403          	ld	s0,48(sp)
    800089dc:	08010113          	addi	sp,sp,128
    800089e0:	00008067          	ret

00000000800089e4 <print>:
    800089e4:	fe010113          	addi	sp,sp,-32
    800089e8:	00113c23          	sd	ra,24(sp)
    800089ec:	00813823          	sd	s0,16(sp)
    800089f0:	02010413          	addi	s0,sp,32
    800089f4:	fea43423          	sd	a0,-24(s0)
    800089f8:	fe843503          	ld	a0,-24(s0)
    800089fc:	00000097          	auipc	ra,0x0
    80008a00:	45c080e7          	jalr	1116(ra) # 80008e58 <uart_putstr>
    80008a04:	00000013          	nop
    80008a08:	01813083          	ld	ra,24(sp)
    80008a0c:	01013403          	ld	s0,16(sp)
    80008a10:	02010113          	addi	sp,sp,32
    80008a14:	00008067          	ret

0000000080008a18 <println>:
    80008a18:	fd010113          	addi	sp,sp,-48
    80008a1c:	02113423          	sd	ra,40(sp)
    80008a20:	02813023          	sd	s0,32(sp)
    80008a24:	03010413          	addi	s0,sp,48
    80008a28:	fca43c23          	sd	a0,-40(s0)
    80008a2c:	00000797          	auipc	a5,0x0
    80008a30:	55c78793          	addi	a5,a5,1372 # 80008f88 <trapinit+0x60>
    80008a34:	fef43423          	sd	a5,-24(s0)
    80008a38:	fd843503          	ld	a0,-40(s0)
    80008a3c:	00000097          	auipc	ra,0x0
    80008a40:	41c080e7          	jalr	1052(ra) # 80008e58 <uart_putstr>
    80008a44:	fe843503          	ld	a0,-24(s0)
    80008a48:	00000097          	auipc	ra,0x0
    80008a4c:	410080e7          	jalr	1040(ra) # 80008e58 <uart_putstr>
    80008a50:	00000013          	nop
    80008a54:	02813083          	ld	ra,40(sp)
    80008a58:	02013403          	ld	s0,32(sp)
    80008a5c:	03010113          	addi	sp,sp,48
    80008a60:	00008067          	ret

0000000080008a64 <run_os_task>:
    80008a64:	fe010113          	addi	sp,sp,-32
    80008a68:	00113c23          	sd	ra,24(sp)
    80008a6c:	00813823          	sd	s0,16(sp)
    80008a70:	02010413          	addi	s0,sp,32
    80008a74:	00000517          	auipc	a0,0x0
    80008a78:	51c50513          	addi	a0,a0,1308 # 80008f90 <trapinit+0x68>
    80008a7c:	00000097          	auipc	ra,0x0
    80008a80:	da0080e7          	jalr	-608(ra) # 8000881c <printf>
    80008a84:	00001797          	auipc	a5,0x1
    80008a88:	59478793          	addi	a5,a5,1428 # 8000a018 <current_task>
    80008a8c:	0007b783          	ld	a5,0(a5)
    80008a90:	fef43423          	sd	a5,-24(s0)
    80008a94:	00001797          	auipc	a5,0x1
    80008a98:	58478793          	addi	a5,a5,1412 # 8000a018 <current_task>
    80008a9c:	0081d717          	auipc	a4,0x81d
    80008aa0:	6cc70713          	addi	a4,a4,1740 # 80826168 <os_task>
    80008aa4:	00e7b023          	sd	a4,0(a5)
    80008aa8:	0081d597          	auipc	a1,0x81d
    80008aac:	6c058593          	addi	a1,a1,1728 # 80826168 <os_task>
    80008ab0:	fe843503          	ld	a0,-24(s0)
    80008ab4:	00000097          	auipc	ra,0x0
    80008ab8:	2e4080e7          	jalr	740(ra) # 80008d98 <swtch>
    80008abc:	00000013          	nop
    80008ac0:	01813083          	ld	ra,24(sp)
    80008ac4:	01013403          	ld	s0,16(sp)
    80008ac8:	02010113          	addi	sp,sp,32
    80008acc:	00008067          	ret

0000000080008ad0 <run_target_task_num>:
    80008ad0:	fe010113          	addi	sp,sp,-32
    80008ad4:	00113c23          	sd	ra,24(sp)
    80008ad8:	00813823          	sd	s0,16(sp)
    80008adc:	02010413          	addi	s0,sp,32
    80008ae0:	00050793          	mv	a5,a0
    80008ae4:	fef42623          	sw	a5,-20(s0)
    80008ae8:	fec42783          	lw	a5,-20(s0)
    80008aec:	00078593          	mv	a1,a5
    80008af0:	00000517          	auipc	a0,0x0
    80008af4:	4b850513          	addi	a0,a0,1208 # 80008fa8 <trapinit+0x80>
    80008af8:	00000097          	auipc	ra,0x0
    80008afc:	d24080e7          	jalr	-732(ra) # 8000881c <printf>
    80008b00:	fec42703          	lw	a4,-20(s0)
    80008b04:	00070793          	mv	a5,a4
    80008b08:	00379793          	slli	a5,a5,0x3
    80008b0c:	40e787b3          	sub	a5,a5,a4
    80008b10:	00479793          	slli	a5,a5,0x4
    80008b14:	00801717          	auipc	a4,0x801
    80008b18:	65470713          	addi	a4,a4,1620 # 8080a168 <tasks>
    80008b1c:	00e78733          	add	a4,a5,a4
    80008b20:	00001797          	auipc	a5,0x1
    80008b24:	4f878793          	addi	a5,a5,1272 # 8000a018 <current_task>
    80008b28:	00e7b023          	sd	a4,0(a5)
    80008b2c:	00001797          	auipc	a5,0x1
    80008b30:	4ec78793          	addi	a5,a5,1260 # 8000a018 <current_task>
    80008b34:	0007b783          	ld	a5,0(a5)
    80008b38:	0007b783          	ld	a5,0(a5)
    80008b3c:	00078513          	mv	a0,a5
    80008b40:	00000097          	auipc	ra,0x0
    80008b44:	c04080e7          	jalr	-1020(ra) # 80008744 <printP>
    80008b48:	00001797          	auipc	a5,0x1
    80008b4c:	4d078793          	addi	a5,a5,1232 # 8000a018 <current_task>
    80008b50:	0007b783          	ld	a5,0(a5)
    80008b54:	00078593          	mv	a1,a5
    80008b58:	0081d517          	auipc	a0,0x81d
    80008b5c:	61050513          	addi	a0,a0,1552 # 80826168 <os_task>
    80008b60:	00000097          	auipc	ra,0x0
    80008b64:	238080e7          	jalr	568(ra) # 80008d98 <swtch>
    80008b68:	00000013          	nop
    80008b6c:	01813083          	ld	ra,24(sp)
    80008b70:	01013403          	ld	s0,16(sp)
    80008b74:	02010113          	addi	sp,sp,32
    80008b78:	00008067          	ret

0000000080008b7c <get_tasks>:
    80008b7c:	ff010113          	addi	sp,sp,-16
    80008b80:	00813423          	sd	s0,8(sp)
    80008b84:	01010413          	addi	s0,sp,16
    80008b88:	0081d797          	auipc	a5,0x81d
    80008b8c:	65078793          	addi	a5,a5,1616 # 808261d8 <taskTop>
    80008b90:	0007a783          	lw	a5,0(a5)
    80008b94:	00078513          	mv	a0,a5
    80008b98:	00813403          	ld	s0,8(sp)
    80008b9c:	01010113          	addi	sp,sp,16
    80008ba0:	00008067          	ret

0000000080008ba4 <user_task0>:
    80008ba4:	fe010113          	addi	sp,sp,-32
    80008ba8:	00113c23          	sd	ra,24(sp)
    80008bac:	00813823          	sd	s0,16(sp)
    80008bb0:	02010413          	addi	s0,sp,32
    80008bb4:	00000517          	auipc	a0,0x0
    80008bb8:	40c50513          	addi	a0,a0,1036 # 80008fc0 <trapinit+0x98>
    80008bbc:	00000097          	auipc	ra,0x0
    80008bc0:	e28080e7          	jalr	-472(ra) # 800089e4 <print>
    80008bc4:	00000517          	auipc	a0,0x0
    80008bc8:	41450513          	addi	a0,a0,1044 # 80008fd8 <trapinit+0xb0>
    80008bcc:	00000097          	auipc	ra,0x0
    80008bd0:	e18080e7          	jalr	-488(ra) # 800089e4 <print>
    80008bd4:	00000097          	auipc	ra,0x0
    80008bd8:	e90080e7          	jalr	-368(ra) # 80008a64 <run_os_task>
    80008bdc:	00000517          	auipc	a0,0x0
    80008be0:	42450513          	addi	a0,a0,1060 # 80009000 <trapinit+0xd8>
    80008be4:	00000097          	auipc	ra,0x0
    80008be8:	e00080e7          	jalr	-512(ra) # 800089e4 <print>
    80008bec:	fe042623          	sw	zero,-20(s0)
    80008bf0:	0100006f          	j	80008c00 <user_task0+0x5c>
    80008bf4:	fec42783          	lw	a5,-20(s0)
    80008bf8:	0017879b          	addiw	a5,a5,1
    80008bfc:	fef42623          	sw	a5,-20(s0)
    80008c00:	fec42783          	lw	a5,-20(s0)
    80008c04:	0007871b          	sext.w	a4,a5
    80008c08:	009897b7          	lui	a5,0x989
    80008c0c:	67f78793          	addi	a5,a5,1663 # 98967f <STACK_SIZE+0x98767f>
    80008c10:	fee7d2e3          	bge	a5,a4,80008bf4 <user_task0+0x50>
    80008c14:	00000097          	auipc	ra,0x0
    80008c18:	e50080e7          	jalr	-432(ra) # 80008a64 <run_os_task>
    80008c1c:	fc1ff06f          	j	80008bdc <user_task0+0x38>

0000000080008c20 <user_task1>:
    80008c20:	fe010113          	addi	sp,sp,-32
    80008c24:	00113c23          	sd	ra,24(sp)
    80008c28:	00813823          	sd	s0,16(sp)
    80008c2c:	02010413          	addi	s0,sp,32
    80008c30:	00000517          	auipc	a0,0x0
    80008c34:	3e850513          	addi	a0,a0,1000 # 80009018 <trapinit+0xf0>
    80008c38:	00000097          	auipc	ra,0x0
    80008c3c:	dac080e7          	jalr	-596(ra) # 800089e4 <print>
    80008c40:	00000517          	auipc	a0,0x0
    80008c44:	3f050513          	addi	a0,a0,1008 # 80009030 <trapinit+0x108>
    80008c48:	00000097          	auipc	ra,0x0
    80008c4c:	d9c080e7          	jalr	-612(ra) # 800089e4 <print>
    80008c50:	00000097          	auipc	ra,0x0
    80008c54:	e14080e7          	jalr	-492(ra) # 80008a64 <run_os_task>
    80008c58:	00000517          	auipc	a0,0x0
    80008c5c:	40050513          	addi	a0,a0,1024 # 80009058 <trapinit+0x130>
    80008c60:	00000097          	auipc	ra,0x0
    80008c64:	d84080e7          	jalr	-636(ra) # 800089e4 <print>
    80008c68:	fe042623          	sw	zero,-20(s0)
    80008c6c:	0100006f          	j	80008c7c <user_task1+0x5c>
    80008c70:	fec42783          	lw	a5,-20(s0)
    80008c74:	0017879b          	addiw	a5,a5,1
    80008c78:	fef42623          	sw	a5,-20(s0)
    80008c7c:	fec42783          	lw	a5,-20(s0)
    80008c80:	0007871b          	sext.w	a4,a5
    80008c84:	009897b7          	lui	a5,0x989
    80008c88:	67f78793          	addi	a5,a5,1663 # 98967f <STACK_SIZE+0x98767f>
    80008c8c:	fee7d2e3          	bge	a5,a4,80008c70 <user_task1+0x50>
    80008c90:	00000097          	auipc	ra,0x0
    80008c94:	dd4080e7          	jalr	-556(ra) # 80008a64 <run_os_task>
    80008c98:	fc1ff06f          	j	80008c58 <user_task1+0x38>

0000000080008c9c <task_create>:
    80008c9c:	fd010113          	addi	sp,sp,-48
    80008ca0:	02813423          	sd	s0,40(sp)
    80008ca4:	03010413          	addi	s0,sp,48
    80008ca8:	fca43c23          	sd	a0,-40(s0)
    80008cac:	0081d797          	auipc	a5,0x81d
    80008cb0:	52c78793          	addi	a5,a5,1324 # 808261d8 <taskTop>
    80008cb4:	0007a783          	lw	a5,0(a5)
    80008cb8:	0017871b          	addiw	a4,a5,1
    80008cbc:	0007069b          	sext.w	a3,a4
    80008cc0:	0081d717          	auipc	a4,0x81d
    80008cc4:	51870713          	addi	a4,a4,1304 # 808261d8 <taskTop>
    80008cc8:	00d72023          	sw	a3,0(a4)
    80008ccc:	fef42623          	sw	a5,-20(s0)
    80008cd0:	fd843683          	ld	a3,-40(s0)
    80008cd4:	00801617          	auipc	a2,0x801
    80008cd8:	49460613          	addi	a2,a2,1172 # 8080a168 <tasks>
    80008cdc:	fec42703          	lw	a4,-20(s0)
    80008ce0:	00070793          	mv	a5,a4
    80008ce4:	00379793          	slli	a5,a5,0x3
    80008ce8:	40e787b3          	sub	a5,a5,a4
    80008cec:	00479793          	slli	a5,a5,0x4
    80008cf0:	00f607b3          	add	a5,a2,a5
    80008cf4:	00d7b023          	sd	a3,0(a5)
    80008cf8:	fec42783          	lw	a5,-20(s0)
    80008cfc:	00d79713          	slli	a4,a5,0xd
    80008d00:	000027b7          	lui	a5,0x2
    80008d04:	ff878793          	addi	a5,a5,-8 # 1ff8 <STACK_SIZE-0x8>
    80008d08:	00f70733          	add	a4,a4,a5
    80008d0c:	00001797          	auipc	a5,0x1
    80008d10:	45c78793          	addi	a5,a5,1116 # 8000a168 <task_stack>
    80008d14:	00f707b3          	add	a5,a4,a5
    80008d18:	00078613          	mv	a2,a5
    80008d1c:	00801697          	auipc	a3,0x801
    80008d20:	44c68693          	addi	a3,a3,1100 # 8080a168 <tasks>
    80008d24:	fec42703          	lw	a4,-20(s0)
    80008d28:	00070793          	mv	a5,a4
    80008d2c:	00379793          	slli	a5,a5,0x3
    80008d30:	40e787b3          	sub	a5,a5,a4
    80008d34:	00479793          	slli	a5,a5,0x4
    80008d38:	00f687b3          	add	a5,a3,a5
    80008d3c:	00c7b423          	sd	a2,8(a5)
    80008d40:	fec42783          	lw	a5,-20(s0)
    80008d44:	00078513          	mv	a0,a5
    80008d48:	02813403          	ld	s0,40(sp)
    80008d4c:	03010113          	addi	sp,sp,48
    80008d50:	00008067          	ret

0000000080008d54 <user_init>:
    80008d54:	ff010113          	addi	sp,sp,-16
    80008d58:	00113423          	sd	ra,8(sp)
    80008d5c:	00813023          	sd	s0,0(sp)
    80008d60:	01010413          	addi	s0,sp,16
    80008d64:	00000517          	auipc	a0,0x0
    80008d68:	e4050513          	addi	a0,a0,-448 # 80008ba4 <user_task0>
    80008d6c:	00000097          	auipc	ra,0x0
    80008d70:	f30080e7          	jalr	-208(ra) # 80008c9c <task_create>
    80008d74:	00000517          	auipc	a0,0x0
    80008d78:	eac50513          	addi	a0,a0,-340 # 80008c20 <user_task1>
    80008d7c:	00000097          	auipc	ra,0x0
    80008d80:	f20080e7          	jalr	-224(ra) # 80008c9c <task_create>
    80008d84:	00000013          	nop
    80008d88:	00813083          	ld	ra,8(sp)
    80008d8c:	00013403          	ld	s0,0(sp)
    80008d90:	01010113          	addi	sp,sp,16
    80008d94:	00008067          	ret

0000000080008d98 <swtch>:
    80008d98:	00153023          	sd	ra,0(a0)
    80008d9c:	00253423          	sd	sp,8(a0)
    80008da0:	e900                	sd	s0,16(a0)
    80008da2:	ed04                	sd	s1,24(a0)
    80008da4:	03253023          	sd	s2,32(a0)
    80008da8:	03353423          	sd	s3,40(a0)
    80008dac:	03453823          	sd	s4,48(a0)
    80008db0:	03553c23          	sd	s5,56(a0)
    80008db4:	05653023          	sd	s6,64(a0)
    80008db8:	05753423          	sd	s7,72(a0)
    80008dbc:	05853823          	sd	s8,80(a0)
    80008dc0:	05953c23          	sd	s9,88(a0)
    80008dc4:	07a53023          	sd	s10,96(a0)
    80008dc8:	07b53423          	sd	s11,104(a0)
    80008dcc:	0005b083          	ld	ra,0(a1)
    80008dd0:	0085b103          	ld	sp,8(a1)
    80008dd4:	6980                	ld	s0,16(a1)
    80008dd6:	6d84                	ld	s1,24(a1)
    80008dd8:	0205b903          	ld	s2,32(a1)
    80008ddc:	0285b983          	ld	s3,40(a1)
    80008de0:	0305ba03          	ld	s4,48(a1)
    80008de4:	0385ba83          	ld	s5,56(a1)
    80008de8:	0405bb03          	ld	s6,64(a1)
    80008dec:	0485bb83          	ld	s7,72(a1)
    80008df0:	0505bc03          	ld	s8,80(a1)
    80008df4:	0585bc83          	ld	s9,88(a1)
    80008df8:	0605bd03          	ld	s10,96(a1)
    80008dfc:	0685bd83          	ld	s11,104(a1)
    80008e00:	8082                	ret
	...

0000000080008e04 <uart_putc>:
    80008e04:	fe010113          	addi	sp,sp,-32
    80008e08:	00813c23          	sd	s0,24(sp)
    80008e0c:	02010413          	addi	s0,sp,32
    80008e10:	00050793          	mv	a5,a0
    80008e14:	fef407a3          	sb	a5,-17(s0)
    80008e18:	00000013          	nop
    80008e1c:	100007b7          	lui	a5,0x10000
    80008e20:	00578793          	addi	a5,a5,5 # 10000005 <STACK_SIZE+0xfffe005>
    80008e24:	0007c783          	lbu	a5,0(a5)
    80008e28:	0ff7f793          	andi	a5,a5,255
    80008e2c:	0007879b          	sext.w	a5,a5
    80008e30:	0207f793          	andi	a5,a5,32
    80008e34:	0007879b          	sext.w	a5,a5
    80008e38:	fe0782e3          	beqz	a5,80008e1c <uart_putc+0x18>
    80008e3c:	100007b7          	lui	a5,0x10000
    80008e40:	fef44703          	lbu	a4,-17(s0)
    80008e44:	00e78023          	sb	a4,0(a5) # 10000000 <STACK_SIZE+0xfffe000>
    80008e48:	00000013          	nop
    80008e4c:	01813403          	ld	s0,24(sp)
    80008e50:	02010113          	addi	sp,sp,32
    80008e54:	00008067          	ret

0000000080008e58 <uart_putstr>:
    80008e58:	fe010113          	addi	sp,sp,-32
    80008e5c:	00113c23          	sd	ra,24(sp)
    80008e60:	00813823          	sd	s0,16(sp)
    80008e64:	02010413          	addi	s0,sp,32
    80008e68:	fea43423          	sd	a0,-24(s0)
    80008e6c:	0200006f          	j	80008e8c <uart_putstr+0x34>
    80008e70:	fe843783          	ld	a5,-24(s0)
    80008e74:	00178713          	addi	a4,a5,1
    80008e78:	fee43423          	sd	a4,-24(s0)
    80008e7c:	0007c783          	lbu	a5,0(a5)
    80008e80:	00078513          	mv	a0,a5
    80008e84:	00000097          	auipc	ra,0x0
    80008e88:	f80080e7          	jalr	-128(ra) # 80008e04 <uart_putc>
    80008e8c:	fe843783          	ld	a5,-24(s0)
    80008e90:	0007c783          	lbu	a5,0(a5)
    80008e94:	fc079ee3          	bnez	a5,80008e70 <uart_putstr+0x18>
    80008e98:	00000013          	nop
    80008e9c:	00000013          	nop
    80008ea0:	01813083          	ld	ra,24(sp)
    80008ea4:	01013403          	ld	s0,16(sp)
    80008ea8:	02010113          	addi	sp,sp,32
    80008eac:	00008067          	ret

0000000080008eb0 <write_stvec>:
    80008eb0:	fe010113          	addi	sp,sp,-32
    80008eb4:	00813c23          	sd	s0,24(sp)
    80008eb8:	02010413          	addi	s0,sp,32
    80008ebc:	fea43423          	sd	a0,-24(s0)
    80008ec0:	fe843783          	ld	a5,-24(s0)
    80008ec4:	10579073          	csrw	stvec,a5
    80008ec8:	00000013          	nop
    80008ecc:	01813403          	ld	s0,24(sp)
    80008ed0:	02010113          	addi	sp,sp,32
    80008ed4:	00008067          	ret

0000000080008ed8 <usertrap>:
    80008ed8:	ff010113          	addi	sp,sp,-16
    80008edc:	00813423          	sd	s0,8(sp)
    80008ee0:	01010413          	addi	s0,sp,16
    80008ee4:	00000013          	nop
    80008ee8:	00813403          	ld	s0,8(sp)
    80008eec:	01010113          	addi	sp,sp,16
    80008ef0:	00008067          	ret

0000000080008ef4 <kerneltrap>:
    80008ef4:	ff010113          	addi	sp,sp,-16
    80008ef8:	00113423          	sd	ra,8(sp)
    80008efc:	00813023          	sd	s0,0(sp)
    80008f00:	01010413          	addi	s0,sp,16
    80008f04:	00000517          	auipc	a0,0x0
    80008f08:	16c50513          	addi	a0,a0,364 # 80009070 <trapinit+0x148>
    80008f0c:	00000097          	auipc	ra,0x0
    80008f10:	b0c080e7          	jalr	-1268(ra) # 80008a18 <println>
    80008f14:	00000013          	nop
    80008f18:	00813083          	ld	ra,8(sp)
    80008f1c:	00013403          	ld	s0,0(sp)
    80008f20:	01010113          	addi	sp,sp,16
    80008f24:	00008067          	ret

0000000080008f28 <trapinit>:
    80008f28:	ff010113          	addi	sp,sp,-16
    80008f2c:	00113423          	sd	ra,8(sp)
    80008f30:	00813023          	sd	s0,0(sp)
    80008f34:	01010413          	addi	s0,sp,16
    80008f38:	00000797          	auipc	a5,0x0
    80008f3c:	fbc78793          	addi	a5,a5,-68 # 80008ef4 <kerneltrap>
    80008f40:	00078513          	mv	a0,a5
    80008f44:	00000097          	auipc	ra,0x0
    80008f48:	f6c080e7          	jalr	-148(ra) # 80008eb0 <write_stvec>
    80008f4c:	00000013          	nop
    80008f50:	00813083          	ld	ra,8(sp)
    80008f54:	00013403          	ld	s0,0(sp)
    80008f58:	01010113          	addi	sp,sp,16
    80008f5c:	00008067          	ret
